

Microchip MPLAB XC8 Assembler V2.40 build 20220703182018 
                                                                                               Fri Nov 18 08:45:04 2022

Microchip MPLAB XC8 C Compiler v2.40 (Free license) build 20220703182018 Og1 
     1                           	processor	16F887
     2                           	pagewidth 120
     3                           	opt	flic
     4                           	psect	cinit,global,class=CODE,merge=1,delta=2
     5                           	psect	bssCOMMON,global,class=COMMON,space=1,delta=1,noexec
     6                           	psect	bssBANK0,global,class=BANK0,space=1,delta=1,noexec
     7                           	psect	cstackBANK1,global,class=BANK1,space=1,delta=1,noexec
     8                           	psect	cstackCOMMON,global,class=COMMON,space=1,delta=1,noexec
     9                           	psect	cstackBANK0,global,class=BANK0,space=1,delta=1,noexec
    10                           	psect	maintext,global,class=CODE,split=1,delta=2
    11                           	psect	text1,local,class=CODE,merge=1,delta=2
    12                           	psect	text2,local,class=CODE,merge=1,delta=2
    13                           	psect	text3,local,class=CODE,merge=1,delta=2
    14                           	psect	text4,local,class=CODE,merge=1,delta=2
    15                           	psect	text5,local,class=CODE,merge=1,delta=2,group=1
    16                           	psect	text6,local,class=CODE,merge=1,delta=2,group=1
    17                           	psect	text7,local,class=CODE,merge=1,delta=2,group=1
    18                           	psect	text8,local,class=CODE,merge=1,delta=2,group=1
    19                           	psect	text9,local,class=CODE,merge=1,delta=2,group=1
    20                           	psect	text10,local,class=CODE,merge=1,delta=2
    21                           	psect	intentry,global,class=CODE,delta=2
    22                           	psect	idloc,global,abs,ovrld,class=IDLOC,space=5,delta=2,noexec
    23                           	psect	config,global,abs,ovrld,class=CONFIG,space=4,delta=2,noexec
    24                           	dabs	1,0x7E,2
    25     0000                     
    26                           ; Version 2.40
    27                           ; Generated 17/11/2021 GMT
    28                           ; 
    29                           ; Copyright © 2021, Microchip Technology Inc. and its subsidiaries ("Microchip")
    30                           ; All rights reserved.
    31                           ; 
    32                           ; This software is developed by Microchip Technology Inc. and its subsidiaries ("Microch
      +                          ip").
    33                           ; 
    34                           ; Redistribution and use in source and binary forms, with or without modification, are
    35                           ; permitted provided that the following conditions are met:
    36                           ; 
    37                           ;     1. Redistributions of source code must retain the above copyright notice, this lis
      +                          t of
    38                           ;        conditions and the following disclaimer.
    39                           ; 
    40                           ;     2. Redistributions in binary form must reproduce the above copyright notice, this 
      +                          list
    41                           ;        of conditions and the following disclaimer in the documentation and/or other
    42                           ;        materials provided with the distribution. Publication is not required when
    43                           ;        this file is used in an embedded application.
    44                           ; 
    45                           ;     3. Microchip's name may not be used to endorse or promote products derived from th
      +                          is
    46                           ;        software without specific prior written permission.
    47                           ; 
    48                           ; THIS SOFTWARE IS PROVIDED BY MICROCHIP "AS IS" AND ANY EXPRESS OR IMPLIED WARRANTIES,
    49                           ; INCLUDING, BUT NOT LIMITED TO, THE IMPLIED WARRANTIES OF MERCHANTABILITY AND FITNESS F
      +                          OR
    50                           ; PURPOSE ARE DISCLAIMED.  IN NO EVENT SHALL MICROCHIP BE LIABLE FOR ANY DIRECT, INDIREC
      +                          T,
    51                           ; INCIDENTAL, SPECIAL, EXEMPLARY, OR CONSEQUENTIAL DAMAGES (INCLUDING BUT NOT LIMITED TO
    52                           ; PROCUREMENT OF SUBSTITUTE GOODS OR SERVICES; LOSS OF USE, DATA OR PROFITS; OR BUSINESS
    53                           ; INTERRUPTION) HOWSOEVER CAUSED AND ON ANY THEORY OF LIABILITY, WHETHER IN CONTRACT, ST
      +                          RICT
    54                           ; LIABILITY, OR TORT (INCLUDING NEGLIGENCE OR OTHERWISE) ARISING IN ANY WAY OUT OF THE U
      +                          SE OF
    55                           ; THIS SOFTWARE, EVEN IF ADVISED OF THE POSSIBILITY OF SUCH DAMAGE.
    56                           ; 
    57                           ; 
    58                           ; Code-generator required, PIC16F887 Definitions
    59                           ; 
    60                           ; SFR Addresses
    61     0000                     	;# 
    62     0001                     	;# 
    63     0002                     	;# 
    64     0003                     	;# 
    65     0004                     	;# 
    66     0005                     	;# 
    67     0006                     	;# 
    68     0007                     	;# 
    69     0008                     	;# 
    70     0009                     	;# 
    71     000A                     	;# 
    72     000B                     	;# 
    73     000C                     	;# 
    74     000D                     	;# 
    75     000E                     	;# 
    76     000E                     	;# 
    77     000F                     	;# 
    78     0010                     	;# 
    79     0011                     	;# 
    80     0012                     	;# 
    81     0013                     	;# 
    82     0014                     	;# 
    83     0015                     	;# 
    84     0015                     	;# 
    85     0016                     	;# 
    86     0017                     	;# 
    87     0018                     	;# 
    88     0019                     	;# 
    89     001A                     	;# 
    90     001B                     	;# 
    91     001B                     	;# 
    92     001C                     	;# 
    93     001D                     	;# 
    94     001E                     	;# 
    95     001F                     	;# 
    96     0081                     	;# 
    97     0085                     	;# 
    98     0086                     	;# 
    99     0087                     	;# 
   100     0088                     	;# 
   101     0089                     	;# 
   102     008C                     	;# 
   103     008D                     	;# 
   104     008E                     	;# 
   105     008F                     	;# 
   106     0090                     	;# 
   107     0091                     	;# 
   108     0092                     	;# 
   109     0093                     	;# 
   110     0093                     	;# 
   111     0093                     	;# 
   112     0094                     	;# 
   113     0095                     	;# 
   114     0096                     	;# 
   115     0097                     	;# 
   116     0098                     	;# 
   117     0099                     	;# 
   118     009A                     	;# 
   119     009B                     	;# 
   120     009C                     	;# 
   121     009D                     	;# 
   122     009E                     	;# 
   123     009F                     	;# 
   124     0105                     	;# 
   125     0107                     	;# 
   126     0108                     	;# 
   127     0109                     	;# 
   128     010C                     	;# 
   129     010C                     	;# 
   130     010D                     	;# 
   131     010E                     	;# 
   132     010F                     	;# 
   133     0185                     	;# 
   134     0187                     	;# 
   135     0188                     	;# 
   136     0189                     	;# 
   137     018C                     	;# 
   138     018D                     	;# 
   139     0000                     	;# 
   140     0001                     	;# 
   141     0002                     	;# 
   142     0003                     	;# 
   143     0004                     	;# 
   144     0005                     	;# 
   145     0006                     	;# 
   146     0007                     	;# 
   147     0008                     	;# 
   148     0009                     	;# 
   149     000A                     	;# 
   150     000B                     	;# 
   151     000C                     	;# 
   152     000D                     	;# 
   153     000E                     	;# 
   154     000E                     	;# 
   155     000F                     	;# 
   156     0010                     	;# 
   157     0011                     	;# 
   158     0012                     	;# 
   159     0013                     	;# 
   160     0014                     	;# 
   161     0015                     	;# 
   162     0015                     	;# 
   163     0016                     	;# 
   164     0017                     	;# 
   165     0018                     	;# 
   166     0019                     	;# 
   167     001A                     	;# 
   168     001B                     	;# 
   169     001B                     	;# 
   170     001C                     	;# 
   171     001D                     	;# 
   172     001E                     	;# 
   173     001F                     	;# 
   174     0081                     	;# 
   175     0085                     	;# 
   176     0086                     	;# 
   177     0087                     	;# 
   178     0088                     	;# 
   179     0089                     	;# 
   180     008C                     	;# 
   181     008D                     	;# 
   182     008E                     	;# 
   183     008F                     	;# 
   184     0090                     	;# 
   185     0091                     	;# 
   186     0092                     	;# 
   187     0093                     	;# 
   188     0093                     	;# 
   189     0093                     	;# 
   190     0094                     	;# 
   191     0095                     	;# 
   192     0096                     	;# 
   193     0097                     	;# 
   194     0098                     	;# 
   195     0099                     	;# 
   196     009A                     	;# 
   197     009B                     	;# 
   198     009C                     	;# 
   199     009D                     	;# 
   200     009E                     	;# 
   201     009F                     	;# 
   202     0105                     	;# 
   203     0107                     	;# 
   204     0108                     	;# 
   205     0109                     	;# 
   206     010C                     	;# 
   207     010C                     	;# 
   208     010D                     	;# 
   209     010E                     	;# 
   210     010F                     	;# 
   211     0185                     	;# 
   212     0187                     	;# 
   213     0188                     	;# 
   214     0189                     	;# 
   215     018C                     	;# 
   216     018D                     	;# 
   217     0012                     _T2CONbits	set	18
   218     001D                     _CCP2CONbits	set	29
   219     0017                     _CCP1CONbits	set	23
   220     000C                     _PIR1bits	set	12
   221     0007                     _PORTC	set	7
   222     0008                     _PORTD	set	8
   223     0005                     _PORTA	set	5
   224     001B                     _CCPR2L	set	27
   225     0015                     _CCPR1L	set	21
   226     001E                     _ADRESH	set	30
   227     001F                     _ADCON0bits	set	31
   228     0006                     _PORTBbits	set	6
   229     0005                     _PORTAbits	set	5
   230     0001                     _TMR0	set	1
   231     0007                     _PORTCbits	set	7
   232     000B                     _INTCONbits	set	11
   233     0092                     _TMR2ON	set	146
   234     0061                     _TMR2IF	set	97
   235     0092                     _PR2	set	146
   236     0087                     _TRISCbits	set	135
   237     009F                     _ADCON1bits	set	159
   238     0085                     _TRISAbits	set	133
   239     0081                     _OPTION_REGbits	set	129
   240     008C                     _PIE1bits	set	140
   241     008F                     _OSCCONbits	set	143
   242     0086                     _TRISB	set	134
   243     0087                     _TRISC	set	135
   244     0085                     _TRISA	set	133
   245     0188                     _ANSELbits	set	392
   246     0189                     _ANSELH	set	393
   247     0188                     _ANSEL	set	392
   248                           
   249                           	psect	cinit
   250     000F                     start_initialization:	
   251                           ; #config settings
   252                           
   253     000F                     __initialization:
   254                           
   255                           ; Clear objects allocated to COMMON
   256     000F  01F6               	clrf	__pbssCOMMON& (0+127)
   257     0010  01F7               	clrf	(__pbssCOMMON+1)& (0+127)
   258     0011  01F8               	clrf	(__pbssCOMMON+2)& (0+127)
   259     0012  01F9               	clrf	(__pbssCOMMON+3)& (0+127)
   260                           
   261                           ; Clear objects allocated to BANK0
   262     0013  1283               	bcf	3,5	;RP0=0, select bank0
   263     0014  1303               	bcf	3,6	;RP1=0, select bank0
   264     0015  01E6               	clrf	__pbssBANK0& (0+127)
   265     0016  01E7               	clrf	(__pbssBANK0+1)& (0+127)
   266     0017  01E8               	clrf	(__pbssBANK0+2)& (0+127)
   267     0018  01E9               	clrf	(__pbssBANK0+3)& (0+127)
   268     0019  01EA               	clrf	(__pbssBANK0+4)& (0+127)
   269     001A  01EB               	clrf	(__pbssBANK0+5)& (0+127)
   270     001B  01EC               	clrf	(__pbssBANK0+6)& (0+127)
   271     001C  01ED               	clrf	(__pbssBANK0+7)& (0+127)
   272     001D  01EE               	clrf	(__pbssBANK0+8)& (0+127)
   273     001E                     end_of_initialization:	
   274                           ;End of C runtime variable initialization code
   275                           
   276     001E                     __end_of__initialization:
   277     001E  0183               	clrf	3
   278     001F  120A  118A  2DBF   	ljmp	_main	;jump to C main() function
   279                           
   280                           	psect	bssCOMMON
   281     0076                     __pbssCOMMON:
   282     0076                     _VAL4:
   283     0076                     	ds	2
   284     0078                     _LED:
   285     0078                     	ds	2
   286                           
   287                           	psect	bssBANK0
   288     0066                     __pbssBANK0:
   289     0066                     _VAL3:
   290     0066                     	ds	2
   291     0068                     _SERVO2:
   292     0068                     	ds	2
   293     006A                     _SERVO1:
   294     006A                     	ds	2
   295     006C                     _volt:
   296     006C                     	ds	2
   297     006E                     _cont:
   298     006E                     	ds	1
   299                           
   300                           	psect	cstackBANK1
   301     00A0                     __pcstackBANK1:
   302     00A0                     ?_paso:
   303     00A0                     paso@voltaje:	
   304                           ; 1 bytes @ 0x0
   305                           
   306                           
   307                           ; 2 bytes @ 0x0
   308     00A0                     	ds	2
   309     00A2                     ??_main:
   310                           
   311                           ; 1 bytes @ 0x2
   312     00A2                     	ds	2
   313                           
   314                           	psect	cstackCOMMON
   315     0070                     __pcstackCOMMON:
   316     0070                     ?_setup:
   317     0070                     ?_setupADC:	
   318                           ; 1 bytes @ 0x0
   319                           
   320     0070                     ?_setupPWM:	
   321                           ; 1 bytes @ 0x0
   322                           
   323     0070                     ?_isr:	
   324                           ; 1 bytes @ 0x0
   325                           
   326     0070                     ??_isr:	
   327                           ; 1 bytes @ 0x0
   328                           
   329     0070                     ?_main:	
   330                           ; 1 bytes @ 0x0
   331                           
   332                           
   333                           ; 1 bytes @ 0x0
   334     0070                     	ds	4
   335     0074                     ??_setup:
   336     0074                     ??_setupADC:	
   337                           ; 1 bytes @ 0x4
   338                           
   339     0074                     ??_setupPWM:	
   340                           ; 1 bytes @ 0x4
   341                           
   342     0074                     ?__Umul8_16:	
   343                           ; 1 bytes @ 0x4
   344                           
   345     0074                     __Umul8_16@multiplicand:	
   346                           ; 2 bytes @ 0x4
   347                           
   348                           
   349                           ; 1 bytes @ 0x4
   350     0074                     	ds	2
   351     0076                     ??_paso:
   352                           
   353                           	psect	cstackBANK0
   354     0020                     __pcstackBANK0:	
   355                           ; 1 bytes @ 0x6
   356                           
   357     0020                     ??__Umul8_16:
   358     0020                     ?___xxtofl:	
   359                           ; 1 bytes @ 0x0
   360                           
   361     0020                     ___xxtofl@val:	
   362                           ; 4 bytes @ 0x0
   363                           
   364                           
   365                           ; 4 bytes @ 0x0
   366     0020                     	ds	2
   367     0022                     __Umul8_16@product:
   368                           
   369                           ; 2 bytes @ 0x2
   370     0022                     	ds	2
   371     0024                     ??___xxtofl:
   372     0024                     __Umul8_16@word_mpld:	
   373                           ; 1 bytes @ 0x4
   374                           
   375                           
   376                           ; 2 bytes @ 0x4
   377     0024                     	ds	2
   378     0026                     __Umul8_16@multiplier:
   379                           
   380                           ; 1 bytes @ 0x6
   381     0026                     	ds	2
   382     0028                     ___xxtofl@sign:
   383                           
   384                           ; 1 bytes @ 0x8
   385     0028                     	ds	1
   386     0029                     ___xxtofl@exp:
   387                           
   388                           ; 1 bytes @ 0x9
   389     0029                     	ds	1
   390     002A                     ___xxtofl@arg:
   391                           
   392                           ; 4 bytes @ 0xA
   393     002A                     	ds	4
   394     002E                     ?___flmul:
   395     002E                     ___flmul@b:	
   396                           ; 4 bytes @ 0xE
   397                           
   398                           
   399                           ; 4 bytes @ 0xE
   400     002E                     	ds	4
   401     0032                     ___flmul@a:
   402                           
   403                           ; 4 bytes @ 0x12
   404     0032                     	ds	4
   405     0036                     ??___flmul:
   406                           
   407                           ; 1 bytes @ 0x16
   408     0036                     	ds	5
   409     003B                     ___flmul@sign:
   410                           
   411                           ; 1 bytes @ 0x1B
   412     003B                     	ds	1
   413     003C                     ___flmul@aexp:
   414                           
   415                           ; 1 bytes @ 0x1C
   416     003C                     	ds	1
   417     003D                     ___flmul@grs:
   418                           
   419                           ; 4 bytes @ 0x1D
   420     003D                     	ds	4
   421     0041                     ___flmul@bexp:
   422                           
   423                           ; 1 bytes @ 0x21
   424     0041                     	ds	1
   425     0042                     ___flmul@prod:
   426                           
   427                           ; 4 bytes @ 0x22
   428     0042                     	ds	4
   429     0046                     ___flmul@temp:
   430                           
   431                           ; 2 bytes @ 0x26
   432     0046                     	ds	2
   433     0048                     ?___fladd:
   434     0048                     ___fladd@b:	
   435                           ; 4 bytes @ 0x28
   436                           
   437                           
   438                           ; 4 bytes @ 0x28
   439     0048                     	ds	4
   440     004C                     ___fladd@a:
   441                           
   442                           ; 4 bytes @ 0x2C
   443     004C                     	ds	4
   444     0050                     ??___fladd:
   445                           
   446                           ; 1 bytes @ 0x30
   447     0050                     	ds	8
   448     0058                     ___fladd@signs:
   449                           
   450                           ; 1 bytes @ 0x38
   451     0058                     	ds	1
   452     0059                     ___fladd@aexp:
   453                           
   454                           ; 1 bytes @ 0x39
   455     0059                     	ds	1
   456     005A                     ___fladd@bexp:
   457                           
   458                           ; 1 bytes @ 0x3A
   459     005A                     	ds	1
   460     005B                     ___fladd@grs:
   461                           
   462                           ; 1 bytes @ 0x3B
   463     005B                     	ds	1
   464     005C                     ?___fltol:
   465     005C                     ___fltol@f1:	
   466                           ; 4 bytes @ 0x3C
   467                           
   468                           
   469                           ; 4 bytes @ 0x3C
   470     005C                     	ds	4
   471     0060                     ??___fltol:
   472                           
   473                           ; 1 bytes @ 0x40
   474     0060                     	ds	4
   475     0064                     ___fltol@sign1:
   476                           
   477                           ; 1 bytes @ 0x44
   478     0064                     	ds	1
   479     0065                     ___fltol@exp1:
   480                           
   481                           ; 1 bytes @ 0x45
   482     0065                     	ds	1
   483                           
   484                           	psect	maintext
   485     05BF                     __pmaintext:	
   486 ;;
   487 ;;Main: autosize = 0, tempsize = 2, incstack = 0, save=0
   488 ;;
   489 ;; *************** function _main *****************
   490 ;; Defined at:
   491 ;;		line 81 in file "MAIN.c"
   492 ;; Parameters:    Size  Location     Type
   493 ;;		None
   494 ;; Auto vars:     Size  Location     Type
   495 ;;		None
   496 ;; Return value:  Size  Location     Type
   497 ;;                  1    wreg      void 
   498 ;; Registers used:
   499 ;;		wreg, status,2, status,0, btemp+1, pclath, cstack
   500 ;; Tracked objects:
   501 ;;		On entry : B00/0
   502 ;;		On exit  : 0/0
   503 ;;		Unchanged: 0/0
   504 ;; Data sizes:     COMMON   BANK0   BANK1   BANK3   BANK2
   505 ;;      Params:         0       0       0       0       0
   506 ;;      Locals:         0       0       0       0       0
   507 ;;      Temps:          0       0       2       0       0
   508 ;;      Totals:         0       0       2       0       0
   509 ;;Total ram usage:        2 bytes
   510 ;; Hardware stack levels required when called: 4
   511 ;; This function calls:
   512 ;;		_paso
   513 ;;		_setup
   514 ;;		_setupADC
   515 ;;		_setupPWM
   516 ;; This function is called by:
   517 ;;		Startup code after reset
   518 ;; This function uses a non-reentrant model
   519 ;;
   520                           
   521     05BF                     _main:	
   522                           ;psect for function _main
   523                           
   524     05BF                     l2086:	
   525                           ;incstack = 0
   526                           ; Regs used in _main: [wreg+status,2+status,0+btemp+1+pclath+cstack]
   527                           
   528                           
   529                           ;MAIN.c: 83:     setup();
   530     05BF  120A  158A  2716  120A  118A  	fcall	_setup
   531                           
   532                           ;MAIN.c: 84:     setupADC();
   533     05C4  120A  158A  2744  120A  118A  	fcall	_setupADC
   534                           
   535                           ;MAIN.c: 85:     setupPWM();
   536     05C9  120A  158A  26F1  120A  118A  	fcall	_setupPWM
   537     05CE                     l2088:
   538                           
   539                           ;MAIN.c: 86:     cont = 0;
   540     05CE  1283               	bcf	3,5	;RP0=0, select bank0
   541     05CF  1303               	bcf	3,6	;RP1=0, select bank0
   542     05D0  01EE               	clrf	_cont
   543     05D1  2E70               	goto	l2126
   544     05D2                     l101:
   545                           
   546                           ;MAIN.c: 92:             PORTAbits.RA5 = 1;
   547     05D2  1685               	bsf	5,5	;volatile
   548                           
   549                           ;MAIN.c: 93:             PORTAbits.RA4 = 0;
   550     05D3  1205               	bcf	5,4	;volatile
   551                           
   552                           ;MAIN.c: 94:             PORTBbits.RB6 = 0;
   553     05D4  1306               	bcf	6,6	;volatile
   554                           
   555                           ;MAIN.c: 95:             PORTBbits.RB7 = 0;
   556     05D5  1386               	bcf	6,7	;volatile
   557     05D6                     l2090:
   558                           
   559                           ;MAIN.c: 98:             ADCON0bits.CHS = 0b0001;
   560     05D6  081F               	movf	31,w	;volatile
   561     05D7  39C3               	andlw	-61
   562     05D8  3804               	iorlw	4
   563     05D9  009F               	movwf	31	;volatile
   564     05DA                     l2092:
   565                           
   566                           ;MAIN.c: 99:             _delay((unsigned long)((100)*(500000/4000000.0)));
   567     05DA  3003               	movlw	3
   568     05DB  1683               	bsf	3,5	;RP0=1, select bank1
   569     05DC  1303               	bcf	3,6	;RP1=0, select bank1
   570     05DD  00A2               	movwf	??_main^(0+128)
   571     05DE                     u3247:
   572     05DE  0BA2               	decfsz	??_main^(0+128),f
   573     05DF  2DDE               	goto	u3247
   574     05E0                     l2094:
   575                           
   576                           ;MAIN.c: 100:             ADCON0bits.GO = 1;
   577     05E0  1283               	bcf	3,5	;RP0=0, select bank0
   578     05E1  1303               	bcf	3,6	;RP1=0, select bank0
   579     05E2  149F               	bsf	31,1	;volatile
   580     05E3                     l102:	
   581                           ;MAIN.c: 103:             }
   582                           
   583                           
   584                           ;MAIN.c: 101:             while (ADCON0bits.GO == 1){
   585     05E3  189F               	btfsc	31,1	;volatile
   586     05E4  2DE6               	goto	u3131
   587     05E5  2DE7               	goto	u3130
   588     05E6                     u3131:
   589     05E6  2DE3               	goto	l102
   590     05E7                     u3130:
   591     05E7                     l2096:
   592                           
   593                           ;MAIN.c: 104:             SERVO1 = ADRESH;
   594     05E7  081E               	movf	30,w	;volatile
   595     05E8  1683               	bsf	3,5	;RP0=1, select bank1
   596     05E9  1303               	bcf	3,6	;RP1=0, select bank1
   597     05EA  00A2               	movwf	??_main^(0+128)
   598     05EB  01A3               	clrf	(??_main^(0+128)+1)
   599     05EC  0822               	movf	??_main^(0+128),w
   600     05ED  1283               	bcf	3,5	;RP0=0, select bank0
   601     05EE  1303               	bcf	3,6	;RP1=0, select bank0
   602     05EF  00EA               	movwf	_SERVO1
   603     05F0  1683               	bsf	3,5	;RP0=1, select bank1
   604     05F1  1303               	bcf	3,6	;RP1=0, select bank1
   605     05F2  0823               	movf	(??_main+1)^(0+128),w
   606     05F3  1283               	bcf	3,5	;RP0=0, select bank0
   607     05F4  1303               	bcf	3,6	;RP1=0, select bank0
   608     05F5  00EB               	movwf	_SERVO1+1
   609     05F6                     l2098:
   610                           
   611                           ;MAIN.c: 105:             paso(SERVO1);
   612     05F6  086B               	movf	_SERVO1+1,w
   613     05F7  1683               	bsf	3,5	;RP0=1, select bank1
   614     05F8  1303               	bcf	3,6	;RP1=0, select bank1
   615     05F9  00A1               	movwf	(paso@voltaje+1)^(0+128)
   616     05FA  1283               	bcf	3,5	;RP0=0, select bank0
   617     05FB  1303               	bcf	3,6	;RP1=0, select bank0
   618     05FC  086A               	movf	_SERVO1,w
   619     05FD  1683               	bsf	3,5	;RP0=1, select bank1
   620     05FE  1303               	bcf	3,6	;RP1=0, select bank1
   621     05FF  00A0               	movwf	paso@voltaje^(0+128)
   622     0600  120A  158A  27A5  120A  118A  	fcall	_paso
   623     0605                     l2100:
   624                           
   625                           ;MAIN.c: 106:             CCPR1L = volt;
   626     0605  1283               	bcf	3,5	;RP0=0, select bank0
   627     0606  1303               	bcf	3,6	;RP1=0, select bank0
   628     0607  086C               	movf	_volt,w
   629     0608  0095               	movwf	21	;volatile
   630     0609                     l2102:
   631                           
   632                           ;MAIN.c: 107:             _delay((unsigned long)((100)*(500000/4000000.0)));
   633     0609  3003               	movlw	3
   634     060A  1683               	bsf	3,5	;RP0=1, select bank1
   635     060B  1303               	bcf	3,6	;RP1=0, select bank1
   636     060C  00A2               	movwf	??_main^(0+128)
   637     060D                     u3257:
   638     060D  0BA2               	decfsz	??_main^(0+128),f
   639     060E  2E0D               	goto	u3257
   640     060F                     l2104:
   641                           
   642                           ;MAIN.c: 110:             ADCON0bits.CHS = 0b0010;
   643     060F  1283               	bcf	3,5	;RP0=0, select bank0
   644     0610  1303               	bcf	3,6	;RP1=0, select bank0
   645     0611  081F               	movf	31,w	;volatile
   646     0612  39C3               	andlw	-61
   647     0613  3808               	iorlw	8
   648     0614  009F               	movwf	31	;volatile
   649     0615                     l2106:
   650                           
   651                           ;MAIN.c: 111:             _delay((unsigned long)((100)*(500000/4000000.0)));
   652     0615  3003               	movlw	3
   653     0616  1683               	bsf	3,5	;RP0=1, select bank1
   654     0617  1303               	bcf	3,6	;RP1=0, select bank1
   655     0618  00A2               	movwf	??_main^(0+128)
   656     0619                     u3267:
   657     0619  0BA2               	decfsz	??_main^(0+128),f
   658     061A  2E19               	goto	u3267
   659     061B                     l2108:
   660                           
   661                           ;MAIN.c: 112:             ADCON0bits.GO = 1;
   662     061B  1283               	bcf	3,5	;RP0=0, select bank0
   663     061C  1303               	bcf	3,6	;RP1=0, select bank0
   664     061D  149F               	bsf	31,1	;volatile
   665     061E                     l105:	
   666                           ;MAIN.c: 115:             }
   667                           
   668                           
   669                           ;MAIN.c: 113:             while (ADCON0bits.GO == 1){
   670     061E  189F               	btfsc	31,1	;volatile
   671     061F  2E21               	goto	u3141
   672     0620  2E22               	goto	u3140
   673     0621                     u3141:
   674     0621  2E1E               	goto	l105
   675     0622                     u3140:
   676     0622                     l2110:
   677                           
   678                           ;MAIN.c: 116:             SERVO2 = ADRESH;
   679     0622  081E               	movf	30,w	;volatile
   680     0623  1683               	bsf	3,5	;RP0=1, select bank1
   681     0624  1303               	bcf	3,6	;RP1=0, select bank1
   682     0625  00A2               	movwf	??_main^(0+128)
   683     0626  01A3               	clrf	(??_main^(0+128)+1)
   684     0627  0822               	movf	??_main^(0+128),w
   685     0628  1283               	bcf	3,5	;RP0=0, select bank0
   686     0629  1303               	bcf	3,6	;RP1=0, select bank0
   687     062A  00E8               	movwf	_SERVO2
   688     062B  1683               	bsf	3,5	;RP0=1, select bank1
   689     062C  1303               	bcf	3,6	;RP1=0, select bank1
   690     062D  0823               	movf	(??_main+1)^(0+128),w
   691     062E  1283               	bcf	3,5	;RP0=0, select bank0
   692     062F  1303               	bcf	3,6	;RP1=0, select bank0
   693     0630  00E9               	movwf	_SERVO2+1
   694     0631                     l2112:
   695                           
   696                           ;MAIN.c: 117:             paso(SERVO2);
   697     0631  0869               	movf	_SERVO2+1,w
   698     0632  1683               	bsf	3,5	;RP0=1, select bank1
   699     0633  1303               	bcf	3,6	;RP1=0, select bank1
   700     0634  00A1               	movwf	(paso@voltaje+1)^(0+128)
   701     0635  1283               	bcf	3,5	;RP0=0, select bank0
   702     0636  1303               	bcf	3,6	;RP1=0, select bank0
   703     0637  0868               	movf	_SERVO2,w
   704     0638  1683               	bsf	3,5	;RP0=1, select bank1
   705     0639  1303               	bcf	3,6	;RP1=0, select bank1
   706     063A  00A0               	movwf	paso@voltaje^(0+128)
   707     063B  120A  158A  27A5  120A  118A  	fcall	_paso
   708     0640                     l2114:
   709                           
   710                           ;MAIN.c: 118:             CCPR2L = volt;
   711     0640  1283               	bcf	3,5	;RP0=0, select bank0
   712     0641  1303               	bcf	3,6	;RP1=0, select bank0
   713     0642  086C               	movf	_volt,w
   714     0643  009B               	movwf	27	;volatile
   715     0644                     l2116:
   716                           
   717                           ;MAIN.c: 119:             _delay((unsigned long)((100)*(500000/4000000.0)));
   718     0644  3003               	movlw	3
   719     0645  1683               	bsf	3,5	;RP0=1, select bank1
   720     0646  1303               	bcf	3,6	;RP1=0, select bank1
   721     0647  00A2               	movwf	??_main^(0+128)
   722     0648                     u3277:
   723     0648  0BA2               	decfsz	??_main^(0+128),f
   724     0649  2E48               	goto	u3277
   725     064A                     l2118:
   726                           
   727                           ;MAIN.c: 122:             ADCON0bits.GO = 0b0011;
   728     064A  1283               	bcf	3,5	;RP0=0, select bank0
   729     064B  1303               	bcf	3,6	;RP1=0, select bank0
   730     064C  149F               	bsf	31,1	;volatile
   731     064D                     l2120:
   732                           
   733                           ;MAIN.c: 123:             _delay((unsigned long)((100)*(500000/4000000.0)));
   734     064D  3003               	movlw	3
   735     064E  1683               	bsf	3,5	;RP0=1, select bank1
   736     064F  1303               	bcf	3,6	;RP1=0, select bank1
   737     0650  00A2               	movwf	??_main^(0+128)
   738     0651                     u3287:
   739     0651  0BA2               	decfsz	??_main^(0+128),f
   740     0652  2E51               	goto	u3287
   741     0653                     l2122:
   742                           
   743                           ;MAIN.c: 124:             ADCON0bits.GO = 1;
   744     0653  1283               	bcf	3,5	;RP0=0, select bank0
   745     0654  1303               	bcf	3,6	;RP1=0, select bank0
   746     0655  149F               	bsf	31,1	;volatile
   747     0656                     l108:	
   748                           ;MAIN.c: 127:             }
   749                           
   750                           
   751                           ;MAIN.c: 125:             while (ADCON0bits.GO == 1){
   752     0656  189F               	btfsc	31,1	;volatile
   753     0657  2E59               	goto	u3151
   754     0658  2E5A               	goto	u3150
   755     0659                     u3151:
   756     0659  2E56               	goto	l108
   757     065A                     u3150:
   758     065A                     l2124:
   759                           
   760                           ;MAIN.c: 128:             VAL3 = ADRESH;
   761     065A  081E               	movf	30,w	;volatile
   762     065B  1683               	bsf	3,5	;RP0=1, select bank1
   763     065C  1303               	bcf	3,6	;RP1=0, select bank1
   764     065D  00A2               	movwf	??_main^(0+128)
   765     065E  01A3               	clrf	(??_main^(0+128)+1)
   766     065F  0822               	movf	??_main^(0+128),w
   767     0660  1283               	bcf	3,5	;RP0=0, select bank0
   768     0661  1303               	bcf	3,6	;RP1=0, select bank0
   769     0662  00E6               	movwf	_VAL3
   770     0663  1683               	bsf	3,5	;RP0=1, select bank1
   771     0664  1303               	bcf	3,6	;RP1=0, select bank1
   772     0665  0823               	movf	(??_main+1)^(0+128),w
   773     0666  1283               	bcf	3,5	;RP0=0, select bank0
   774     0667  1303               	bcf	3,6	;RP1=0, select bank0
   775     0668  00E7               	movwf	_VAL3+1
   776                           
   777                           ;MAIN.c: 129:             _delay((unsigned long)((100)*(500000/4000000.0)));
   778     0669  3003               	movlw	3
   779     066A  1683               	bsf	3,5	;RP0=1, select bank1
   780     066B  1303               	bcf	3,6	;RP1=0, select bank1
   781     066C  00A2               	movwf	??_main^(0+128)
   782     066D                     u3297:
   783     066D  0BA2               	decfsz	??_main^(0+128),f
   784     066E  2E6D               	goto	u3297
   785     066F  2E70               	goto	l2126
   786     0670                     l100:	
   787                           ;MAIN.c: 130:         }
   788                           
   789     0670                     l2126:
   790                           
   791                           ;MAIN.c: 90:         while(PORTBbits.RB0 == 1 && PORTBbits.RB1 == 0){
   792     0670  1283               	bcf	3,5	;RP0=0, select bank0
   793     0671  1303               	bcf	3,6	;RP1=0, select bank0
   794     0672  1C06               	btfss	6,0	;volatile
   795     0673  2E75               	goto	u3161
   796     0674  2E76               	goto	u3160
   797     0675                     u3161:
   798     0675  2E7F               	goto	l114
   799     0676                     u3160:
   800     0676                     l2128:
   801     0676  1C86               	btfss	6,1	;volatile
   802     0677  2E79               	goto	u3171
   803     0678  2E7A               	goto	u3170
   804     0679                     u3171:
   805     0679  2DD2               	goto	l101
   806     067A                     u3170:
   807     067A  2E7F               	goto	l114
   808     067B                     l115:
   809                           
   810                           ;MAIN.c: 133:             PORTAbits.RA5 = 0;
   811     067B  1285               	bcf	5,5	;volatile
   812                           
   813                           ;MAIN.c: 134:             PORTAbits.RA4 = 1;
   814     067C  1605               	bsf	5,4	;volatile
   815                           
   816                           ;MAIN.c: 135:             PORTBbits.RB6 = 0;
   817     067D  1306               	bcf	6,6	;volatile
   818                           
   819                           ;MAIN.c: 136:             PORTBbits.RB7 = 0;
   820     067E  1386               	bcf	6,7	;volatile
   821     067F                     l114:	
   822                           ;MAIN.c: 137:         }
   823                           
   824                           
   825                           ;MAIN.c: 132:         while (PORTBbits.RB0 == 0 && PORTBbits.RB1 == 1){
   826     067F  1806               	btfsc	6,0	;volatile
   827     0680  2E82               	goto	u3181
   828     0681  2E83               	goto	u3180
   829     0682                     u3181:
   830     0682  2E8C               	goto	l119
   831     0683                     u3180:
   832     0683                     l2130:
   833     0683  1886               	btfsc	6,1	;volatile
   834     0684  2E86               	goto	u3191
   835     0685  2E87               	goto	u3190
   836     0686                     u3191:
   837     0686  2E7B               	goto	l115
   838     0687                     u3190:
   839     0687  2E8C               	goto	l119
   840     0688                     l120:
   841                           
   842                           ;MAIN.c: 140:             PORTAbits.RA5 = 0;
   843     0688  1285               	bcf	5,5	;volatile
   844                           
   845                           ;MAIN.c: 141:             PORTAbits.RA4 = 0;
   846     0689  1205               	bcf	5,4	;volatile
   847                           
   848                           ;MAIN.c: 142:             PORTBbits.RB6 = 1;
   849     068A  1706               	bsf	6,6	;volatile
   850                           
   851                           ;MAIN.c: 143:             PORTBbits.RB7 = 0;
   852     068B  1386               	bcf	6,7	;volatile
   853     068C                     l119:	
   854                           ;MAIN.c: 144:         }
   855                           
   856                           
   857                           ;MAIN.c: 139:         while (PORTBbits.RB0 == 1 && PORTBbits.RB1 == 1){
   858     068C  1C06               	btfss	6,0	;volatile
   859     068D  2E8F               	goto	u3201
   860     068E  2E90               	goto	u3200
   861     068F                     u3201:
   862     068F  2E99               	goto	l124
   863     0690                     u3200:
   864     0690                     l2132:
   865     0690  1886               	btfsc	6,1	;volatile
   866     0691  2E93               	goto	u3211
   867     0692  2E94               	goto	u3210
   868     0693                     u3211:
   869     0693  2E88               	goto	l120
   870     0694                     u3210:
   871     0694  2E99               	goto	l124
   872     0695                     l125:
   873                           
   874                           ;MAIN.c: 147:             PORTAbits.RA5 = 0;
   875     0695  1285               	bcf	5,5	;volatile
   876                           
   877                           ;MAIN.c: 148:             PORTAbits.RA4 = 0;
   878     0696  1205               	bcf	5,4	;volatile
   879                           
   880                           ;MAIN.c: 149:             PORTBbits.RB6 = 0;
   881     0697  1306               	bcf	6,6	;volatile
   882                           
   883                           ;MAIN.c: 150:             PORTBbits.RB7 = 1;
   884     0698  1786               	bsf	6,7	;volatile
   885     0699                     l124:	
   886                           ;MAIN.c: 151:         }
   887                           
   888                           
   889                           ;MAIN.c: 146:         while (PORTBbits.RB0 == 0 && PORTBbits.RB1 == 0){
   890     0699  1806               	btfsc	6,0	;volatile
   891     069A  2E9C               	goto	u3221
   892     069B  2E9D               	goto	u3220
   893     069C                     u3221:
   894     069C  2E70               	goto	l100
   895     069D                     u3220:
   896     069D                     l2134:
   897     069D  1C86               	btfss	6,1	;volatile
   898     069E  2EA0               	goto	u3231
   899     069F  2EA1               	goto	u3230
   900     06A0                     u3231:
   901     06A0  2E95               	goto	l125
   902     06A1                     u3230:
   903     06A1  2E70               	goto	l2126
   904     06A2  120A  118A  280C   	ljmp	start
   905     06A5                     __end_of_main:
   906                           
   907                           	psect	text1
   908     0EF1                     __ptext1:	
   909 ;; *************** function _setupPWM *****************
   910 ;; Defined at:
   911 ;;		line 234 in file "MAIN.c"
   912 ;; Parameters:    Size  Location     Type
   913 ;;		None
   914 ;; Auto vars:     Size  Location     Type
   915 ;;		None
   916 ;; Return value:  Size  Location     Type
   917 ;;                  1    wreg      void 
   918 ;; Registers used:
   919 ;;		wreg, status,2, status,0
   920 ;; Tracked objects:
   921 ;;		On entry : 0/0
   922 ;;		On exit  : 0/0
   923 ;;		Unchanged: 0/0
   924 ;; Data sizes:     COMMON   BANK0   BANK1   BANK3   BANK2
   925 ;;      Params:         0       0       0       0       0
   926 ;;      Locals:         0       0       0       0       0
   927 ;;      Temps:          0       0       0       0       0
   928 ;;      Totals:         0       0       0       0       0
   929 ;;Total ram usage:        0 bytes
   930 ;; Hardware stack levels used: 1
   931 ;; Hardware stack levels required when called: 1
   932 ;; This function calls:
   933 ;;		Nothing
   934 ;; This function is called by:
   935 ;;		_main
   936 ;; This function uses a non-reentrant model
   937 ;;
   938                           
   939     0EF1                     _setupPWM:	
   940                           ;psect for function _setupPWM
   941                           
   942     0EF1                     l1762:	
   943                           ;incstack = 0
   944                           ; Regs used in _setupPWM: [wreg+status,2+status,0]
   945                           
   946                           
   947                           ;MAIN.c: 236:     TRISCbits.TRISC1 = 1;
   948     0EF1  1683               	bsf	3,5	;RP0=1, select bank1
   949     0EF2  1303               	bcf	3,6	;RP1=0, select bank1
   950     0EF3  1487               	bsf	7,1	;volatile
   951                           
   952                           ;MAIN.c: 237:     TRISCbits.TRISC2 = 1;
   953     0EF4  1507               	bsf	7,2	;volatile
   954     0EF5                     l1764:
   955                           
   956                           ;MAIN.c: 240:     PR2 = 255;
   957     0EF5  30FF               	movlw	255
   958     0EF6  0092               	movwf	18	;volatile
   959     0EF7                     l1766:
   960                           
   961                           ;MAIN.c: 244:     CCP1CONbits.P1M = 0b00;
   962     0EF7  303F               	movlw	-193
   963     0EF8  1283               	bcf	3,5	;RP0=0, select bank0
   964     0EF9  1303               	bcf	3,6	;RP1=0, select bank0
   965     0EFA  0597               	andwf	23,f	;volatile
   966     0EFB                     l1768:
   967                           
   968                           ;MAIN.c: 246:     CCP1CONbits.CCP1M = 0b1100;
   969     0EFB  0817               	movf	23,w	;volatile
   970     0EFC  39F0               	andlw	-16
   971     0EFD  380C               	iorlw	12
   972     0EFE  0097               	movwf	23	;volatile
   973     0EFF                     l1770:
   974                           
   975                           ;MAIN.c: 248:     CCP2CONbits.CCP2M = 0b1111;
   976     0EFF  300F               	movlw	15
   977     0F00  049D               	iorwf	29,f	;volatile
   978     0F01                     l1772:
   979                           
   980                           ;MAIN.c: 251:     CCP1CONbits.DC1B = 0b11;
   981     0F01  3030               	movlw	48
   982     0F02  0497               	iorwf	23,f	;volatile
   983                           
   984                           ;MAIN.c: 252:     CCPR1L = 11;
   985     0F03  300B               	movlw	11
   986     0F04  0095               	movwf	21	;volatile
   987     0F05                     l1774:
   988                           
   989                           ;MAIN.c: 254:     CCP2CONbits.DC2B1 = 0b1;
   990     0F05  169D               	bsf	29,5	;volatile
   991     0F06                     l1776:
   992                           
   993                           ;MAIN.c: 255:     CCP2CONbits.DC2B0 = 0b1;
   994     0F06  161D               	bsf	29,4	;volatile
   995                           
   996                           ;MAIN.c: 256:     CCPR1L = 11;
   997     0F07  300B               	movlw	11
   998     0F08  0095               	movwf	21	;volatile
   999     0F09                     l1778:
  1000                           
  1001                           ;MAIN.c: 259:     TMR2IF = 0;
  1002     0F09  108C               	bcf	12,1	;volatile
  1003     0F0A                     l1780:
  1004                           
  1005                           ;MAIN.c: 260:     T2CONbits.T2CKPS = 0b11;
  1006     0F0A  3003               	movlw	3
  1007     0F0B  0492               	iorwf	18,f	;volatile
  1008     0F0C                     l1782:
  1009                           
  1010                           ;MAIN.c: 261:     TMR2ON = 1;
  1011     0F0C  1512               	bsf	18,2	;volatile
  1012     0F0D                     l143:	
  1013                           ;MAIN.c: 262:     while(!TMR2IF);
  1014                           
  1015     0F0D  1C8C               	btfss	12,1	;volatile
  1016     0F0E  2F10               	goto	u2351
  1017     0F0F  2F11               	goto	u2350
  1018     0F10                     u2351:
  1019     0F10  2F0D               	goto	l143
  1020     0F11                     u2350:
  1021     0F11                     l145:
  1022                           
  1023                           ;MAIN.c: 263:     TRISCbits.TRISC1 = 0;
  1024     0F11  1683               	bsf	3,5	;RP0=1, select bank1
  1025     0F12  1303               	bcf	3,6	;RP1=0, select bank1
  1026     0F13  1087               	bcf	7,1	;volatile
  1027                           
  1028                           ;MAIN.c: 264:     TRISCbits.TRISC2 = 0;
  1029     0F14  1107               	bcf	7,2	;volatile
  1030     0F15                     l146:
  1031     0F15  0008               	return
  1032     0F16                     __end_of_setupPWM:
  1033                           
  1034                           	psect	text2
  1035     0F44                     __ptext2:	
  1036 ;; *************** function _setupADC *****************
  1037 ;; Defined at:
  1038 ;;		line 199 in file "MAIN.c"
  1039 ;; Parameters:    Size  Location     Type
  1040 ;;		None
  1041 ;; Auto vars:     Size  Location     Type
  1042 ;;		None
  1043 ;; Return value:  Size  Location     Type
  1044 ;;                  1    wreg      void 
  1045 ;; Registers used:
  1046 ;;		wreg, status,2, status,0
  1047 ;; Tracked objects:
  1048 ;;		On entry : 0/0
  1049 ;;		On exit  : 0/0
  1050 ;;		Unchanged: 0/0
  1051 ;; Data sizes:     COMMON   BANK0   BANK1   BANK3   BANK2
  1052 ;;      Params:         0       0       0       0       0
  1053 ;;      Locals:         0       0       0       0       0
  1054 ;;      Temps:          1       0       0       0       0
  1055 ;;      Totals:         1       0       0       0       0
  1056 ;;Total ram usage:        1 bytes
  1057 ;; Hardware stack levels used: 1
  1058 ;; Hardware stack levels required when called: 1
  1059 ;; This function calls:
  1060 ;;		Nothing
  1061 ;; This function is called by:
  1062 ;;		_main
  1063 ;; This function uses a non-reentrant model
  1064 ;;
  1065                           
  1066     0F44                     _setupADC:	
  1067                           ;psect for function _setupADC
  1068                           
  1069     0F44                     l1754:	
  1070                           ;incstack = 0
  1071                           ; Regs used in _setupADC: [wreg+status,2+status,0]
  1072                           
  1073                           
  1074                           ;MAIN.c: 202:     TRISAbits.TRISA0 = 1;
  1075     0F44  1683               	bsf	3,5	;RP0=1, select bank1
  1076     0F45  1303               	bcf	3,6	;RP1=0, select bank1
  1077     0F46  1405               	bsf	5,0	;volatile
  1078                           
  1079                           ;MAIN.c: 203:     ANSELbits.ANS0 = 1;
  1080     0F47  1683               	bsf	3,5	;RP0=1, select bank3
  1081     0F48  1703               	bsf	3,6	;RP1=1, select bank3
  1082     0F49  1408               	bsf	8,0	;volatile
  1083                           
  1084                           ;MAIN.c: 205:     TRISAbits.TRISA1 = 1;
  1085     0F4A  1683               	bsf	3,5	;RP0=1, select bank1
  1086     0F4B  1303               	bcf	3,6	;RP1=0, select bank1
  1087     0F4C  1485               	bsf	5,1	;volatile
  1088                           
  1089                           ;MAIN.c: 206:     ANSELbits.ANS1 = 1;
  1090     0F4D  1683               	bsf	3,5	;RP0=1, select bank3
  1091     0F4E  1703               	bsf	3,6	;RP1=1, select bank3
  1092     0F4F  1488               	bsf	8,1	;volatile
  1093                           
  1094                           ;MAIN.c: 208:     TRISAbits.TRISA2 = 1;
  1095     0F50  1683               	bsf	3,5	;RP0=1, select bank1
  1096     0F51  1303               	bcf	3,6	;RP1=0, select bank1
  1097     0F52  1505               	bsf	5,2	;volatile
  1098                           
  1099                           ;MAIN.c: 209:     ANSELbits.ANS2 = 1;
  1100     0F53  1683               	bsf	3,5	;RP0=1, select bank3
  1101     0F54  1703               	bsf	3,6	;RP1=1, select bank3
  1102     0F55  1508               	bsf	8,2	;volatile
  1103                           
  1104                           ;MAIN.c: 211:     TRISAbits.TRISA3 = 1;
  1105     0F56  1683               	bsf	3,5	;RP0=1, select bank1
  1106     0F57  1303               	bcf	3,6	;RP1=0, select bank1
  1107     0F58  1585               	bsf	5,3	;volatile
  1108                           
  1109                           ;MAIN.c: 212:     ANSELbits.ANS3 = 1;
  1110     0F59  1683               	bsf	3,5	;RP0=1, select bank3
  1111     0F5A  1703               	bsf	3,6	;RP1=1, select bank3
  1112     0F5B  1588               	bsf	8,3	;volatile
  1113                           
  1114                           ;MAIN.c: 217:     ADCON0bits.ADCS1 = 0;
  1115     0F5C  1283               	bcf	3,5	;RP0=0, select bank0
  1116     0F5D  1303               	bcf	3,6	;RP1=0, select bank0
  1117     0F5E  139F               	bcf	31,7	;volatile
  1118                           
  1119                           ;MAIN.c: 218:     ADCON0bits.ADCS0 = 1;
  1120     0F5F  171F               	bsf	31,6	;volatile
  1121                           
  1122                           ;MAIN.c: 220:     ADCON1bits.VCFG1 = 0;
  1123     0F60  1683               	bsf	3,5	;RP0=1, select bank1
  1124     0F61  1303               	bcf	3,6	;RP1=0, select bank1
  1125     0F62  129F               	bcf	31,5	;volatile
  1126                           
  1127                           ;MAIN.c: 221:     ADCON1bits.VCFG0 = 0;
  1128     0F63  121F               	bcf	31,4	;volatile
  1129                           
  1130                           ;MAIN.c: 223:     ADCON1bits.ADFM = 0;
  1131     0F64  139F               	bcf	31,7	;volatile
  1132     0F65                     l1756:
  1133                           
  1134                           ;MAIN.c: 226:     ADCON0bits.CHS = 0b0010;
  1135     0F65  1283               	bcf	3,5	;RP0=0, select bank0
  1136     0F66  1303               	bcf	3,6	;RP1=0, select bank0
  1137     0F67  081F               	movf	31,w	;volatile
  1138     0F68  39C3               	andlw	-61
  1139     0F69  3808               	iorlw	8
  1140     0F6A  009F               	movwf	31	;volatile
  1141     0F6B                     l1758:
  1142                           
  1143                           ;MAIN.c: 229:     ADCON0bits.ADON = 1;
  1144     0F6B  141F               	bsf	31,0	;volatile
  1145     0F6C                     l1760:
  1146                           
  1147                           ;MAIN.c: 230:     _delay((unsigned long)((100)*(500000/4000000.0)));
  1148     0F6C  3003               	movlw	3
  1149     0F6D  00F4               	movwf	??_setupADC
  1150     0F6E                     u3307:
  1151     0F6E  0BF4               	decfsz	??_setupADC,f
  1152     0F6F  2F6E               	goto	u3307
  1153     0F70  2F71               	nop2
  1154     0F71                     l140:
  1155     0F71  0008               	return
  1156     0F72                     __end_of_setupADC:
  1157                           
  1158                           	psect	text3
  1159     0F16                     __ptext3:	
  1160 ;; *************** function _setup *****************
  1161 ;; Defined at:
  1162 ;;		line 157 in file "MAIN.c"
  1163 ;; Parameters:    Size  Location     Type
  1164 ;;		None
  1165 ;; Auto vars:     Size  Location     Type
  1166 ;;		None
  1167 ;; Return value:  Size  Location     Type
  1168 ;;                  1    wreg      void 
  1169 ;; Registers used:
  1170 ;;		wreg, status,2, status,0
  1171 ;; Tracked objects:
  1172 ;;		On entry : 0/0
  1173 ;;		On exit  : 0/0
  1174 ;;		Unchanged: 0/0
  1175 ;; Data sizes:     COMMON   BANK0   BANK1   BANK3   BANK2
  1176 ;;      Params:         0       0       0       0       0
  1177 ;;      Locals:         0       0       0       0       0
  1178 ;;      Temps:          0       0       0       0       0
  1179 ;;      Totals:         0       0       0       0       0
  1180 ;;Total ram usage:        0 bytes
  1181 ;; Hardware stack levels used: 1
  1182 ;; Hardware stack levels required when called: 1
  1183 ;; This function calls:
  1184 ;;		Nothing
  1185 ;; This function is called by:
  1186 ;;		_main
  1187 ;; This function uses a non-reentrant model
  1188 ;;
  1189                           
  1190     0F16                     _setup:	
  1191                           ;psect for function _setup
  1192                           
  1193     0F16                     l1722:	
  1194                           ;incstack = 0
  1195                           ; Regs used in _setup: [wreg+status,2+status,0]
  1196                           
  1197                           
  1198                           ;MAIN.c: 160:     ANSEL = 0B00001111;
  1199     0F16  300F               	movlw	15
  1200     0F17  1683               	bsf	3,5	;RP0=1, select bank3
  1201     0F18  1703               	bsf	3,6	;RP1=1, select bank3
  1202     0F19  0088               	movwf	8	;volatile
  1203     0F1A                     l1724:
  1204                           
  1205                           ;MAIN.c: 161:     ANSELH = 0;
  1206     0F1A  0189               	clrf	9	;volatile
  1207     0F1B                     l1726:
  1208                           
  1209                           ;MAIN.c: 163:     TRISA = 0b00001111;
  1210     0F1B  300F               	movlw	15
  1211     0F1C  1683               	bsf	3,5	;RP0=1, select bank1
  1212     0F1D  1303               	bcf	3,6	;RP1=0, select bank1
  1213     0F1E  0085               	movwf	5	;volatile
  1214     0F1F                     l1728:
  1215                           
  1216                           ;MAIN.c: 164:     TRISC = 0b10000000;
  1217     0F1F  3080               	movlw	128
  1218     0F20  0087               	movwf	7	;volatile
  1219     0F21                     l1730:
  1220                           
  1221                           ;MAIN.c: 165:     TRISB = 0b00000011;
  1222     0F21  3003               	movlw	3
  1223     0F22  0086               	movwf	6	;volatile
  1224                           
  1225                           ;MAIN.c: 169:     PORTA = 0;
  1226     0F23  1283               	bcf	3,5	;RP0=0, select bank0
  1227     0F24  1303               	bcf	3,6	;RP1=0, select bank0
  1228     0F25  0185               	clrf	5	;volatile
  1229                           
  1230                           ;MAIN.c: 170:     PORTD = 0;
  1231     0F26  0188               	clrf	8	;volatile
  1232                           
  1233                           ;MAIN.c: 171:     PORTC = 0;
  1234     0F27  0187               	clrf	7	;volatile
  1235                           
  1236                           ;MAIN.c: 172:     PORTD = 0;
  1237     0F28  0188               	clrf	8	;volatile
  1238     0F29                     l1732:
  1239                           
  1240                           ;MAIN.c: 177:     OSCCONbits.IRCF = 0b011;
  1241     0F29  1683               	bsf	3,5	;RP0=1, select bank1
  1242     0F2A  1303               	bcf	3,6	;RP1=0, select bank1
  1243     0F2B  080F               	movf	15,w	;volatile
  1244     0F2C  398F               	andlw	-113
  1245     0F2D  3830               	iorlw	48
  1246     0F2E  008F               	movwf	15	;volatile
  1247     0F2F                     l1734:
  1248                           
  1249                           ;MAIN.c: 178:     OSCCONbits.SCS = 1;
  1250     0F2F  140F               	bsf	15,0	;volatile
  1251     0F30                     l1736:
  1252                           
  1253                           ;MAIN.c: 181:     INTCONbits.GIE = 1;
  1254     0F30  178B               	bsf	11,7	;volatile
  1255     0F31                     l1738:
  1256                           
  1257                           ;MAIN.c: 183:     PIE1bits.ADIE = 1;
  1258     0F31  170C               	bsf	12,6	;volatile
  1259     0F32                     l1740:
  1260                           
  1261                           ;MAIN.c: 184:     PIR1bits.ADIF = 0;
  1262     0F32  1283               	bcf	3,5	;RP0=0, select bank0
  1263     0F33  1303               	bcf	3,6	;RP1=0, select bank0
  1264     0F34  130C               	bcf	12,6	;volatile
  1265     0F35                     l1742:
  1266                           
  1267                           ;MAIN.c: 186:     INTCONbits.TMR0IE = 1;
  1268     0F35  168B               	bsf	11,5	;volatile
  1269     0F36                     l1744:
  1270                           
  1271                           ;MAIN.c: 187:     INTCONbits.T0IF = 0;
  1272     0F36  110B               	bcf	11,2	;volatile
  1273     0F37                     l1746:
  1274                           
  1275                           ;MAIN.c: 188:     OPTION_REGbits.T0CS = 0;
  1276     0F37  1683               	bsf	3,5	;RP0=1, select bank1
  1277     0F38  1303               	bcf	3,6	;RP1=0, select bank1
  1278     0F39  1281               	bcf	1,5	;volatile
  1279     0F3A                     l1748:
  1280                           
  1281                           ;MAIN.c: 189:     OPTION_REGbits.PSA = 0;
  1282     0F3A  1181               	bcf	1,3	;volatile
  1283     0F3B                     l1750:
  1284                           
  1285                           ;MAIN.c: 190:     OPTION_REGbits.PS = 0b011;
  1286     0F3B  0801               	movf	1,w	;volatile
  1287     0F3C  39F8               	andlw	-8
  1288     0F3D  3803               	iorlw	3
  1289     0F3E  0081               	movwf	1	;volatile
  1290     0F3F                     l1752:
  1291                           
  1292                           ;MAIN.c: 191:     TMR0 = 240;
  1293     0F3F  30F0               	movlw	240
  1294     0F40  1283               	bcf	3,5	;RP0=0, select bank0
  1295     0F41  1303               	bcf	3,6	;RP1=0, select bank0
  1296     0F42  0081               	movwf	1	;volatile
  1297     0F43                     l134:
  1298     0F43  0008               	return
  1299     0F44                     __end_of_setup:
  1300                           
  1301                           	psect	text4
  1302     0FA5                     __ptext4:	
  1303 ;; *************** function _paso *****************
  1304 ;; Defined at:
  1305 ;;		line 195 in file "MAIN.c"
  1306 ;; Parameters:    Size  Location     Type
  1307 ;;  voltaje         2    0[BANK1 ] int 
  1308 ;; Auto vars:     Size  Location     Type
  1309 ;;		None
  1310 ;; Return value:  Size  Location     Type
  1311 ;;                  1    wreg      void 
  1312 ;; Registers used:
  1313 ;;		wreg, status,2, status,0, btemp+1, pclath, cstack
  1314 ;; Tracked objects:
  1315 ;;		On entry : 0/0
  1316 ;;		On exit  : 0/0
  1317 ;;		Unchanged: 0/0
  1318 ;; Data sizes:     COMMON   BANK0   BANK1   BANK3   BANK2
  1319 ;;      Params:         0       0       2       0       0
  1320 ;;      Locals:         0       0       0       0       0
  1321 ;;      Temps:          0       0       0       0       0
  1322 ;;      Totals:         0       0       2       0       0
  1323 ;;Total ram usage:        2 bytes
  1324 ;; Hardware stack levels used: 1
  1325 ;; Hardware stack levels required when called: 3
  1326 ;; This function calls:
  1327 ;;		___fladd
  1328 ;;		___flmul
  1329 ;;		___fltol
  1330 ;;		___xxtofl
  1331 ;; This function is called by:
  1332 ;;		_main
  1333 ;; This function uses a non-reentrant model
  1334 ;;
  1335                           
  1336     0FA5                     _paso:	
  1337                           ;psect for function _paso
  1338                           
  1339     0FA5                     l2084:	
  1340                           ;incstack = 0
  1341                           ; Regs used in _paso: [wreg+status,2+status,0+btemp+1+pclath+cstack]
  1342                           
  1343                           
  1344                           ;MAIN.c: 196:     volt = (unsigned short)(7+((float)(9)/(255))*(voltaje-0));
  1345     0FA5  1683               	bsf	3,5	;RP0=1, select bank1
  1346     0FA6  1303               	bcf	3,6	;RP1=0, select bank1
  1347     0FA7  0820               	movf	paso@voltaje^(0+128),w
  1348     0FA8  1283               	bcf	3,5	;RP0=0, select bank0
  1349     0FA9  1303               	bcf	3,6	;RP1=0, select bank0
  1350     0FAA  00A0               	movwf	___xxtofl@val
  1351     0FAB  1683               	bsf	3,5	;RP0=1, select bank1
  1352     0FAC  1303               	bcf	3,6	;RP1=0, select bank1
  1353     0FAD  0821               	movf	(paso@voltaje+1)^(0+128),w
  1354     0FAE  1283               	bcf	3,5	;RP0=0, select bank0
  1355     0FAF  1303               	bcf	3,6	;RP1=0, select bank0
  1356     0FB0  00A1               	movwf	___xxtofl@val+1
  1357     0FB1  3000               	movlw	0
  1358     0FB2  1BA1               	btfsc	___xxtofl@val+1,7
  1359     0FB3  30FF               	movlw	255
  1360     0FB4  00A2               	movwf	___xxtofl@val+2
  1361     0FB5  00A3               	movwf	___xxtofl@val+3
  1362     0FB6  3001               	movlw	1
  1363     0FB7  120A  118A  26A5  120A  158A  	fcall	___xxtofl
  1364     0FBC  1283               	bcf	3,5	;RP0=0, select bank0
  1365     0FBD  1303               	bcf	3,6	;RP1=0, select bank0
  1366     0FBE  0823               	movf	?___xxtofl+3,w
  1367     0FBF  00B5               	movwf	___flmul@a+3
  1368     0FC0  0822               	movf	?___xxtofl+2,w
  1369     0FC1  00B4               	movwf	___flmul@a+2
  1370     0FC2  0821               	movf	?___xxtofl+1,w
  1371     0FC3  00B3               	movwf	___flmul@a+1
  1372     0FC4  0820               	movf	?___xxtofl,w
  1373     0FC5  00B2               	movwf	___flmul@a
  1374     0FC6  303D               	movlw	61
  1375     0FC7  00B1               	movwf	___flmul@b+3
  1376     0FC8  3010               	movlw	16
  1377     0FC9  00B0               	movwf	___flmul@b+2
  1378     0FCA  3090               	movlw	144
  1379     0FCB  00AF               	movwf	___flmul@b+1
  1380     0FCC  3091               	movlw	145
  1381     0FCD  00AE               	movwf	___flmul@b
  1382     0FCE  120A  118A  2022  120A  158A  	fcall	___flmul
  1383     0FD3  1283               	bcf	3,5	;RP0=0, select bank0
  1384     0FD4  1303               	bcf	3,6	;RP1=0, select bank0
  1385     0FD5  0831               	movf	?___flmul+3,w
  1386     0FD6  00CF               	movwf	___fladd@a+3
  1387     0FD7  0830               	movf	?___flmul+2,w
  1388     0FD8  00CE               	movwf	___fladd@a+2
  1389     0FD9  082F               	movf	?___flmul+1,w
  1390     0FDA  00CD               	movwf	___fladd@a+1
  1391     0FDB  082E               	movf	?___flmul,w
  1392     0FDC  00CC               	movwf	___fladd@a
  1393     0FDD  3040               	movlw	64
  1394     0FDE  00CB               	movwf	___fladd@b+3
  1395     0FDF  30E0               	movlw	224
  1396     0FE0  00CA               	movwf	___fladd@b+2
  1397     0FE1  3000               	movlw	0
  1398     0FE2  00C9               	movwf	___fladd@b+1
  1399     0FE3  3000               	movlw	0
  1400     0FE4  00C8               	movwf	___fladd@b
  1401     0FE5  120A  118A  2367  120A  158A  	fcall	___fladd
  1402     0FEA  1283               	bcf	3,5	;RP0=0, select bank0
  1403     0FEB  1303               	bcf	3,6	;RP1=0, select bank0
  1404     0FEC  084B               	movf	?___fladd+3,w
  1405     0FED  00DF               	movwf	___fltol@f1+3
  1406     0FEE  084A               	movf	?___fladd+2,w
  1407     0FEF  00DE               	movwf	___fltol@f1+2
  1408     0FF0  0849               	movf	?___fladd+1,w
  1409     0FF1  00DD               	movwf	___fltol@f1+1
  1410     0FF2  0848               	movf	?___fladd,w
  1411     0FF3  00DC               	movwf	___fltol@f1
  1412     0FF4  120A  118A  275F  120A  158A  	fcall	___fltol
  1413     0FF9  1283               	bcf	3,5	;RP0=0, select bank0
  1414     0FFA  1303               	bcf	3,6	;RP1=0, select bank0
  1415     0FFB  085D               	movf	?___fltol+1,w
  1416     0FFC  00ED               	movwf	_volt+1
  1417     0FFD  085C               	movf	?___fltol,w
  1418     0FFE  00EC               	movwf	_volt
  1419     0FFF                     l137:
  1420     0FFF  0008               	return
  1421     1000                     __end_of_paso:
  1422                           
  1423                           	psect	text5
  1424     06A5                     __ptext5:	
  1425 ;; *************** function ___xxtofl *****************
  1426 ;; Defined at:
  1427 ;;		line 10 in file "C:\Program Files\Microchip\xc8\v2.40\pic\sources\c90\common\xxtofl.c"
  1428 ;; Parameters:    Size  Location     Type
  1429 ;;  sign            1    wreg     unsigned char 
  1430 ;;  val             4    0[BANK0 ] long 
  1431 ;; Auto vars:     Size  Location     Type
  1432 ;;  sign            1    8[BANK0 ] unsigned char 
  1433 ;;  arg             4   10[BANK0 ] unsigned long 
  1434 ;;  exp             1    9[BANK0 ] unsigned char 
  1435 ;; Return value:  Size  Location     Type
  1436 ;;                  4    0[BANK0 ] unsigned char 
  1437 ;; Registers used:
  1438 ;;		wreg, status,2, status,0
  1439 ;; Tracked objects:
  1440 ;;		On entry : 0/0
  1441 ;;		On exit  : 0/0
  1442 ;;		Unchanged: 0/0
  1443 ;; Data sizes:     COMMON   BANK0   BANK1   BANK3   BANK2
  1444 ;;      Params:         0       4       0       0       0
  1445 ;;      Locals:         0       6       0       0       0
  1446 ;;      Temps:          0       4       0       0       0
  1447 ;;      Totals:         0      14       0       0       0
  1448 ;;Total ram usage:       14 bytes
  1449 ;; Hardware stack levels used: 1
  1450 ;; Hardware stack levels required when called: 1
  1451 ;; This function calls:
  1452 ;;		Nothing
  1453 ;; This function is called by:
  1454 ;;		_paso
  1455 ;; This function uses a non-reentrant model
  1456 ;;
  1457                           
  1458     06A5                     ___xxtofl:	
  1459                           ;psect for function ___xxtofl
  1460                           
  1461                           
  1462                           ;incstack = 0
  1463                           ; Regs used in ___xxtofl: [wreg+status,2+status,0]
  1464                           ;___xxtofl@sign stored from wreg
  1465     06A5  1283               	bcf	3,5	;RP0=0, select bank0
  1466     06A6  1303               	bcf	3,6	;RP1=0, select bank0
  1467     06A7  00A8               	movwf	___xxtofl@sign
  1468     06A8                     l2040:
  1469     06A8  0828               	movf	___xxtofl@sign,w
  1470     06A9  1903               	btfsc	3,2
  1471     06AA  2EAC               	goto	u2991
  1472     06AB  2EAD               	goto	u2990
  1473     06AC                     u2991:
  1474     06AC  2EC1               	goto	l2046
  1475     06AD                     u2990:
  1476     06AD                     l2042:
  1477     06AD  1FA3               	btfss	___xxtofl@val+3,7
  1478     06AE  2EB0               	goto	u3001
  1479     06AF  2EB1               	goto	u3000
  1480     06B0                     u3001:
  1481     06B0  2EC1               	goto	l2046
  1482     06B1                     u3000:
  1483     06B1                     l2044:
  1484     06B1  0920               	comf	___xxtofl@val,w
  1485     06B2  00AA               	movwf	___xxtofl@arg
  1486     06B3  0921               	comf	___xxtofl@val+1,w
  1487     06B4  00AB               	movwf	___xxtofl@arg+1
  1488     06B5  0922               	comf	___xxtofl@val+2,w
  1489     06B6  00AC               	movwf	___xxtofl@arg+2
  1490     06B7  0923               	comf	___xxtofl@val+3,w
  1491     06B8  00AD               	movwf	___xxtofl@arg+3
  1492     06B9  0AAA               	incf	___xxtofl@arg,f
  1493     06BA  1903               	skipnz
  1494     06BB  0AAB               	incf	___xxtofl@arg+1,f
  1495     06BC  1903               	skipnz
  1496     06BD  0AAC               	incf	___xxtofl@arg+2,f
  1497     06BE  1903               	skipnz
  1498     06BF  0AAD               	incf	___xxtofl@arg+3,f
  1499     06C0  2EC9               	goto	l665
  1500     06C1                     l2046:
  1501     06C1  0823               	movf	___xxtofl@val+3,w
  1502     06C2  00AD               	movwf	___xxtofl@arg+3
  1503     06C3  0822               	movf	___xxtofl@val+2,w
  1504     06C4  00AC               	movwf	___xxtofl@arg+2
  1505     06C5  0821               	movf	___xxtofl@val+1,w
  1506     06C6  00AB               	movwf	___xxtofl@arg+1
  1507     06C7  0820               	movf	___xxtofl@val,w
  1508     06C8  00AA               	movwf	___xxtofl@arg
  1509     06C9                     l665:
  1510     06C9  0823               	movf	___xxtofl@val+3,w
  1511     06CA  0422               	iorwf	___xxtofl@val+2,w
  1512     06CB  0421               	iorwf	___xxtofl@val+1,w
  1513     06CC  0420               	iorwf	___xxtofl@val,w
  1514     06CD  1D03               	skipz
  1515     06CE  2ED0               	goto	u3011
  1516     06CF  2ED1               	goto	u3010
  1517     06D0                     u3011:
  1518     06D0  2EDA               	goto	l2052
  1519     06D1                     u3010:
  1520     06D1                     l2048:
  1521     06D1  3000               	movlw	0
  1522     06D2  00A3               	movwf	?___xxtofl+3
  1523     06D3  3000               	movlw	0
  1524     06D4  00A2               	movwf	?___xxtofl+2
  1525     06D5  3000               	movlw	0
  1526     06D6  00A1               	movwf	?___xxtofl+1
  1527     06D7  3000               	movlw	0
  1528     06D8  00A0               	movwf	?___xxtofl
  1529     06D9  2F5E               	goto	l667
  1530     06DA                     l2052:
  1531     06DA  3096               	movlw	150
  1532     06DB  00A9               	movwf	___xxtofl@exp
  1533     06DC  2EEA               	goto	l2056
  1534     06DD                     l2054:
  1535     06DD  3001               	movlw	1
  1536     06DE  00A4               	movwf	??___xxtofl
  1537     06DF  0824               	movf	??___xxtofl,w
  1538     06E0  07A9               	addwf	___xxtofl@exp,f
  1539     06E1  3001               	movlw	1
  1540     06E2                     u3025:
  1541     06E2  1003               	clrc
  1542     06E3  0CAD               	rrf	___xxtofl@arg+3,f
  1543     06E4  0CAC               	rrf	___xxtofl@arg+2,f
  1544     06E5  0CAB               	rrf	___xxtofl@arg+1,f
  1545     06E6  0CAA               	rrf	___xxtofl@arg,f
  1546     06E7  3EFF               	addlw	-1
  1547     06E8  1D03               	skipz
  1548     06E9  2EE2               	goto	u3025
  1549     06EA                     l2056:
  1550     06EA  30FE               	movlw	254
  1551     06EB  052D               	andwf	___xxtofl@arg+3,w
  1552     06EC  1D03               	btfss	3,2
  1553     06ED  2EEF               	goto	u3031
  1554     06EE  2EF0               	goto	u3030
  1555     06EF                     u3031:
  1556     06EF  2EDD               	goto	l2054
  1557     06F0                     u3030:
  1558     06F0  2F0C               	goto	l671
  1559     06F1                     l2058:
  1560     06F1  3001               	movlw	1
  1561     06F2  00A4               	movwf	??___xxtofl
  1562     06F3  0824               	movf	??___xxtofl,w
  1563     06F4  07A9               	addwf	___xxtofl@exp,f
  1564     06F5                     l2060:
  1565     06F5  3001               	movlw	1
  1566     06F6  07AA               	addwf	___xxtofl@arg,f
  1567     06F7  3000               	movlw	0
  1568     06F8  1803               	skipnc
  1569     06F9  3001               	movlw	1
  1570     06FA  07AB               	addwf	___xxtofl@arg+1,f
  1571     06FB  3000               	movlw	0
  1572     06FC  1803               	skipnc
  1573     06FD  3001               	movlw	1
  1574     06FE  07AC               	addwf	___xxtofl@arg+2,f
  1575     06FF  3000               	movlw	0
  1576     0700  1803               	skipnc
  1577     0701  3001               	movlw	1
  1578     0702  07AD               	addwf	___xxtofl@arg+3,f
  1579     0703                     l2062:
  1580     0703  3001               	movlw	1
  1581     0704                     u3045:
  1582     0704  1003               	clrc
  1583     0705  0CAD               	rrf	___xxtofl@arg+3,f
  1584     0706  0CAC               	rrf	___xxtofl@arg+2,f
  1585     0707  0CAB               	rrf	___xxtofl@arg+1,f
  1586     0708  0CAA               	rrf	___xxtofl@arg,f
  1587     0709  3EFF               	addlw	-1
  1588     070A  1D03               	skipz
  1589     070B  2F04               	goto	u3045
  1590     070C                     l671:
  1591     070C  30FF               	movlw	255
  1592     070D  052D               	andwf	___xxtofl@arg+3,w
  1593     070E  1D03               	btfss	3,2
  1594     070F  2F11               	goto	u3051
  1595     0710  2F12               	goto	u3050
  1596     0711                     u3051:
  1597     0711  2EF1               	goto	l2058
  1598     0712                     u3050:
  1599     0712  2F1E               	goto	l2066
  1600     0713                     l2064:
  1601     0713  3001               	movlw	1
  1602     0714  02A9               	subwf	___xxtofl@exp,f
  1603     0715  3001               	movlw	1
  1604     0716  00A4               	movwf	??___xxtofl
  1605     0717                     u3065:
  1606     0717  1003               	clrc
  1607     0718  0DAA               	rlf	___xxtofl@arg,f
  1608     0719  0DAB               	rlf	___xxtofl@arg+1,f
  1609     071A  0DAC               	rlf	___xxtofl@arg+2,f
  1610     071B  0DAD               	rlf	___xxtofl@arg+3,f
  1611     071C  0BA4               	decfsz	??___xxtofl,f
  1612     071D  2F17               	goto	u3065
  1613     071E                     l2066:
  1614     071E  1BAC               	btfsc	___xxtofl@arg+2,7
  1615     071F  2F21               	goto	u3071
  1616     0720  2F22               	goto	u3070
  1617     0721                     u3071:
  1618     0721  2F28               	goto	l678
  1619     0722                     u3070:
  1620     0722                     l2068:
  1621     0722  3002               	movlw	2
  1622     0723  0229               	subwf	___xxtofl@exp,w
  1623     0724  1803               	skipnc
  1624     0725  2F27               	goto	u3081
  1625     0726  2F28               	goto	u3080
  1626     0727                     u3081:
  1627     0727  2F13               	goto	l2064
  1628     0728                     u3080:
  1629     0728                     l678:
  1630     0728  1829               	btfsc	___xxtofl@exp,0
  1631     0729  2F2B               	goto	u3091
  1632     072A  2F2C               	goto	u3090
  1633     072B                     u3091:
  1634     072B  2F34               	goto	l679
  1635     072C                     u3090:
  1636     072C                     l2070:
  1637     072C  30FF               	movlw	255
  1638     072D  05AA               	andwf	___xxtofl@arg,f
  1639     072E  30FF               	movlw	255
  1640     072F  05AB               	andwf	___xxtofl@arg+1,f
  1641     0730  307F               	movlw	127
  1642     0731  05AC               	andwf	___xxtofl@arg+2,f
  1643     0732  30FF               	movlw	255
  1644     0733  05AD               	andwf	___xxtofl@arg+3,f
  1645     0734                     l679:
  1646     0734  1003               	clrc
  1647     0735  0CA9               	rrf	___xxtofl@exp,f
  1648     0736                     l2072:
  1649     0736  0829               	movf	___xxtofl@exp,w
  1650     0737  00A4               	movwf	??___xxtofl
  1651     0738  01A5               	clrf	??___xxtofl+1
  1652     0739  01A6               	clrf	??___xxtofl+2
  1653     073A  01A7               	clrf	??___xxtofl+3
  1654     073B  3018               	movlw	24
  1655     073C                     u3105:
  1656     073C  1003               	clrc
  1657     073D  0DA4               	rlf	??___xxtofl,f
  1658     073E  0DA5               	rlf	??___xxtofl+1,f
  1659     073F  0DA6               	rlf	??___xxtofl+2,f
  1660     0740  0DA7               	rlf	??___xxtofl+3,f
  1661     0741                     u3100:
  1662     0741  3EFF               	addlw	-1
  1663     0742  1D03               	skipz
  1664     0743  2F3C               	goto	u3105
  1665     0744  0824               	movf	??___xxtofl,w
  1666     0745  04AA               	iorwf	___xxtofl@arg,f
  1667     0746  0825               	movf	??___xxtofl+1,w
  1668     0747  04AB               	iorwf	___xxtofl@arg+1,f
  1669     0748  0826               	movf	??___xxtofl+2,w
  1670     0749  04AC               	iorwf	___xxtofl@arg+2,f
  1671     074A  0827               	movf	??___xxtofl+3,w
  1672     074B  04AD               	iorwf	___xxtofl@arg+3,f
  1673     074C                     l2074:
  1674     074C  0828               	movf	___xxtofl@sign,w
  1675     074D  1903               	btfsc	3,2
  1676     074E  2F50               	goto	u3111
  1677     074F  2F51               	goto	u3110
  1678     0750                     u3111:
  1679     0750  2F56               	goto	l2080
  1680     0751                     u3110:
  1681     0751                     l2076:
  1682     0751  1FA3               	btfss	___xxtofl@val+3,7
  1683     0752  2F54               	goto	u3121
  1684     0753  2F55               	goto	u3120
  1685     0754                     u3121:
  1686     0754  2F56               	goto	l2080
  1687     0755                     u3120:
  1688     0755                     l2078:
  1689     0755  17AD               	bsf	___xxtofl@arg+3,7
  1690     0756                     l2080:
  1691     0756  082D               	movf	___xxtofl@arg+3,w
  1692     0757  00A3               	movwf	?___xxtofl+3
  1693     0758  082C               	movf	___xxtofl@arg+2,w
  1694     0759  00A2               	movwf	?___xxtofl+2
  1695     075A  082B               	movf	___xxtofl@arg+1,w
  1696     075B  00A1               	movwf	?___xxtofl+1
  1697     075C  082A               	movf	___xxtofl@arg,w
  1698     075D  00A0               	movwf	?___xxtofl
  1699     075E                     l667:
  1700     075E  0008               	return
  1701     075F                     __end_of___xxtofl:
  1702                           
  1703                           	psect	text6
  1704     075F                     __ptext6:	
  1705 ;; *************** function ___fltol *****************
  1706 ;; Defined at:
  1707 ;;		line 43 in file "C:\Program Files\Microchip\xc8\v2.40\pic\sources\c90\common\fltol.c"
  1708 ;; Parameters:    Size  Location     Type
  1709 ;;  f1              4   60[BANK0 ] unsigned char 
  1710 ;; Auto vars:     Size  Location     Type
  1711 ;;  exp1            1   69[BANK0 ] unsigned char 
  1712 ;;  sign1           1   68[BANK0 ] unsigned char 
  1713 ;; Return value:  Size  Location     Type
  1714 ;;                  4   60[BANK0 ] long 
  1715 ;; Registers used:
  1716 ;;		wreg, status,2, status,0
  1717 ;; Tracked objects:
  1718 ;;		On entry : 0/0
  1719 ;;		On exit  : 0/0
  1720 ;;		Unchanged: 0/0
  1721 ;; Data sizes:     COMMON   BANK0   BANK1   BANK3   BANK2
  1722 ;;      Params:         0       4       0       0       0
  1723 ;;      Locals:         0       2       0       0       0
  1724 ;;      Temps:          0       4       0       0       0
  1725 ;;      Totals:         0      10       0       0       0
  1726 ;;Total ram usage:       10 bytes
  1727 ;; Hardware stack levels used: 1
  1728 ;; Hardware stack levels required when called: 1
  1729 ;; This function calls:
  1730 ;;		Nothing
  1731 ;; This function is called by:
  1732 ;;		_paso
  1733 ;; This function uses a non-reentrant model
  1734 ;;
  1735                           
  1736     075F                     ___fltol:	
  1737                           ;psect for function ___fltol
  1738                           
  1739     075F                     l1864:	
  1740                           ;incstack = 0
  1741                           ; Regs used in ___fltol: [wreg+status,2+status,0]
  1742                           
  1743     075F  1003               	clrc
  1744     0760  1283               	bcf	3,5	;RP0=0, select bank0
  1745     0761  1303               	bcf	3,6	;RP1=0, select bank0
  1746     0762  0D5E               	rlf	___fltol@f1+2,w
  1747     0763  0D5F               	rlf	___fltol@f1+3,w
  1748     0764  00E5               	movwf	___fltol@exp1
  1749     0765  0865               	movf	___fltol@exp1,w
  1750     0766  1D03               	btfss	3,2
  1751     0767  2F69               	goto	u2521
  1752     0768  2F6A               	goto	u2520
  1753     0769                     u2521:
  1754     0769  2F73               	goto	l1870
  1755     076A                     u2520:
  1756     076A                     l1866:
  1757     076A  3000               	movlw	0
  1758     076B  00DF               	movwf	?___fltol+3
  1759     076C  3000               	movlw	0
  1760     076D  00DE               	movwf	?___fltol+2
  1761     076E  3000               	movlw	0
  1762     076F  00DD               	movwf	?___fltol+1
  1763     0770  3000               	movlw	0
  1764     0771  00DC               	movwf	?___fltol
  1765     0772  2FD6               	goto	l418
  1766     0773                     l1870:
  1767     0773  085C               	movf	___fltol@f1,w
  1768     0774  00E0               	movwf	??___fltol
  1769     0775  085D               	movf	___fltol@f1+1,w
  1770     0776  00E1               	movwf	??___fltol+1
  1771     0777  085E               	movf	___fltol@f1+2,w
  1772     0778  00E2               	movwf	??___fltol+2
  1773     0779  085F               	movf	___fltol@f1+3,w
  1774     077A  00E3               	movwf	??___fltol+3
  1775     077B  301F               	movlw	31
  1776     077C                     u2535:
  1777     077C  1003               	clrc
  1778     077D  0CE3               	rrf	??___fltol+3,f
  1779     077E  0CE2               	rrf	??___fltol+2,f
  1780     077F  0CE1               	rrf	??___fltol+1,f
  1781     0780  0CE0               	rrf	??___fltol,f
  1782     0781                     u2530:
  1783     0781  3EFF               	addlw	-1
  1784     0782  1D03               	skipz
  1785     0783  2F7C               	goto	u2535
  1786     0784  0860               	movf	??___fltol,w
  1787     0785  00E4               	movwf	___fltol@sign1
  1788     0786                     l1872:
  1789     0786  17DE               	bsf	___fltol@f1+2,7
  1790     0787                     l1874:
  1791     0787  30FF               	movlw	255
  1792     0788  05DC               	andwf	___fltol@f1,f
  1793     0789  30FF               	movlw	255
  1794     078A  05DD               	andwf	___fltol@f1+1,f
  1795     078B  30FF               	movlw	255
  1796     078C  05DE               	andwf	___fltol@f1+2,f
  1797     078D  3000               	movlw	0
  1798     078E  05DF               	andwf	___fltol@f1+3,f
  1799     078F                     l1876:
  1800     078F  3096               	movlw	150
  1801     0790  02E5               	subwf	___fltol@exp1,f
  1802     0791                     l1878:
  1803     0791  1FE5               	btfss	___fltol@exp1,7
  1804     0792  2F94               	goto	u2541
  1805     0793  2F95               	goto	u2540
  1806     0794                     u2541:
  1807     0794  2FAF               	goto	l1888
  1808     0795                     u2540:
  1809     0795                     l1880:
  1810     0795  0865               	movf	___fltol@exp1,w
  1811     0796  3A80               	xorlw	128
  1812     0797  3E97               	addlw	151
  1813     0798  1803               	skipnc
  1814     0799  2F9B               	goto	u2551
  1815     079A  2F9C               	goto	u2550
  1816     079B                     u2551:
  1817     079B  2F9D               	goto	l1886
  1818     079C                     u2550:
  1819     079C  2F6A               	goto	l1866
  1820     079D                     l1886:
  1821     079D  3001               	movlw	1
  1822     079E                     u2565:
  1823     079E  1003               	clrc
  1824     079F  0CDF               	rrf	___fltol@f1+3,f
  1825     07A0  0CDE               	rrf	___fltol@f1+2,f
  1826     07A1  0CDD               	rrf	___fltol@f1+1,f
  1827     07A2  0CDC               	rrf	___fltol@f1,f
  1828     07A3  3EFF               	addlw	-1
  1829     07A4  1D03               	skipz
  1830     07A5  2F9E               	goto	u2565
  1831     07A6  3001               	movlw	1
  1832     07A7  00E0               	movwf	??___fltol
  1833     07A8  0860               	movf	??___fltol,w
  1834     07A9  07E5               	addwf	___fltol@exp1,f
  1835     07AA  1D03               	btfss	3,2
  1836     07AB  2FAD               	goto	u2571
  1837     07AC  2FAE               	goto	u2570
  1838     07AD                     u2571:
  1839     07AD  2F9D               	goto	l1886
  1840     07AE                     u2570:
  1841     07AE  2FC6               	goto	l1896
  1842     07AF                     l1888:
  1843     07AF  3020               	movlw	32
  1844     07B0  0265               	subwf	___fltol@exp1,w
  1845     07B1  1C03               	skipc
  1846     07B2  2FB4               	goto	u2581
  1847     07B3  2FB5               	goto	u2580
  1848     07B4                     u2581:
  1849     07B4  2FC1               	goto	l425
  1850     07B5                     u2580:
  1851     07B5  2F6A               	goto	l1866
  1852     07B6                     l1894:
  1853     07B6  3001               	movlw	1
  1854     07B7  00E0               	movwf	??___fltol
  1855     07B8                     u2595:
  1856     07B8  1003               	clrc
  1857     07B9  0DDC               	rlf	___fltol@f1,f
  1858     07BA  0DDD               	rlf	___fltol@f1+1,f
  1859     07BB  0DDE               	rlf	___fltol@f1+2,f
  1860     07BC  0DDF               	rlf	___fltol@f1+3,f
  1861     07BD  0BE0               	decfsz	??___fltol,f
  1862     07BE  2FB8               	goto	u2595
  1863     07BF  3001               	movlw	1
  1864     07C0  02E5               	subwf	___fltol@exp1,f
  1865     07C1                     l425:
  1866     07C1  0865               	movf	___fltol@exp1,w
  1867     07C2  1D03               	btfss	3,2
  1868     07C3  2FC5               	goto	u2601
  1869     07C4  2FC6               	goto	u2600
  1870     07C5                     u2601:
  1871     07C5  2FB6               	goto	l1894
  1872     07C6                     u2600:
  1873     07C6                     l1896:
  1874     07C6  0864               	movf	___fltol@sign1,w
  1875     07C7  1903               	btfsc	3,2
  1876     07C8  2FCA               	goto	u2611
  1877     07C9  2FCB               	goto	u2610
  1878     07CA                     u2611:
  1879     07CA  2FD6               	goto	l428
  1880     07CB                     u2610:
  1881     07CB                     l1898:
  1882     07CB  09DC               	comf	___fltol@f1,f
  1883     07CC  09DD               	comf	___fltol@f1+1,f
  1884     07CD  09DE               	comf	___fltol@f1+2,f
  1885     07CE  09DF               	comf	___fltol@f1+3,f
  1886     07CF  0ADC               	incf	___fltol@f1,f
  1887     07D0  1903               	skipnz
  1888     07D1  0ADD               	incf	___fltol@f1+1,f
  1889     07D2  1903               	skipnz
  1890     07D3  0ADE               	incf	___fltol@f1+2,f
  1891     07D4  1903               	skipnz
  1892     07D5  0ADF               	incf	___fltol@f1+3,f
  1893     07D6                     l428:
  1894     07D6                     l418:
  1895     07D6  0008               	return
  1896     07D7                     __end_of___fltol:
  1897                           
  1898                           	psect	text7
  1899     0022                     __ptext7:	
  1900 ;; *************** function ___flmul *****************
  1901 ;; Defined at:
  1902 ;;		line 8 in file "C:\Program Files\Microchip\xc8\v2.40\pic\sources\c90\common\sprcmul.c"
  1903 ;; Parameters:    Size  Location     Type
  1904 ;;  b               4   14[BANK0 ] long 
  1905 ;;  a               4   18[BANK0 ] long 
  1906 ;; Auto vars:     Size  Location     Type
  1907 ;;  prod            4   34[BANK0 ] struct .
  1908 ;;  grs             4   29[BANK0 ] unsigned long 
  1909 ;;  temp            2   38[BANK0 ] struct .
  1910 ;;  bexp            1   33[BANK0 ] unsigned char 
  1911 ;;  aexp            1   28[BANK0 ] unsigned char 
  1912 ;;  sign            1   27[BANK0 ] unsigned char 
  1913 ;; Return value:  Size  Location     Type
  1914 ;;                  4   14[BANK0 ] unsigned char 
  1915 ;; Registers used:
  1916 ;;		wreg, status,2, status,0, btemp+1, pclath, cstack
  1917 ;; Tracked objects:
  1918 ;;		On entry : 0/0
  1919 ;;		On exit  : 0/0
  1920 ;;		Unchanged: 0/0
  1921 ;; Data sizes:     COMMON   BANK0   BANK1   BANK3   BANK2
  1922 ;;      Params:         0       8       0       0       0
  1923 ;;      Locals:         0      13       0       0       0
  1924 ;;      Temps:          0       5       0       0       0
  1925 ;;      Totals:         0      26       0       0       0
  1926 ;;Total ram usage:       26 bytes
  1927 ;; Hardware stack levels used: 1
  1928 ;; Hardware stack levels required when called: 2
  1929 ;; This function calls:
  1930 ;;		__Umul8_16
  1931 ;; This function is called by:
  1932 ;;		_paso
  1933 ;; This function uses a non-reentrant model
  1934 ;;
  1935                           
  1936     0022                     ___flmul:	
  1937                           ;psect for function ___flmul
  1938                           
  1939     0022                     l1900:	
  1940                           ;incstack = 0
  1941                           ; Regs used in ___flmul: [wreg+status,2+status,0+btemp+1+pclath+cstack]
  1942                           
  1943     0022  1283               	bcf	3,5	;RP0=0, select bank0
  1944     0023  1303               	bcf	3,6	;RP1=0, select bank0
  1945     0024  0831               	movf	___flmul@b+3,w
  1946     0025  3980               	andlw	128
  1947     0026  00BB               	movwf	___flmul@sign
  1948     0027                     l1902:
  1949     0027  0831               	movf	___flmul@b+3,w
  1950     0028  00B6               	movwf	??___flmul
  1951     0029  0736               	addwf	??___flmul,w
  1952     002A  00C1               	movwf	___flmul@bexp
  1953     002B                     l1904:
  1954     002B  1FB0               	btfss	___flmul@b+2,7
  1955     002C  282E               	goto	u2621
  1956     002D  282F               	goto	u2620
  1957     002E                     u2621:
  1958     002E  2830               	goto	l1908
  1959     002F                     u2620:
  1960     002F                     l1906:
  1961     002F  1441               	bsf	___flmul@bexp,0
  1962     0030                     l1908:
  1963     0030  0841               	movf	___flmul@bexp,w
  1964     0031  1903               	btfsc	3,2
  1965     0032  2834               	goto	u2631
  1966     0033  2835               	goto	u2630
  1967     0034                     u2631:
  1968     0034  2844               	goto	l1916
  1969     0035                     u2630:
  1970     0035                     l1910:
  1971     0035  0A41               	incf	___flmul@bexp,w
  1972     0036  1D03               	btfss	3,2
  1973     0037  2839               	goto	u2641
  1974     0038  283A               	goto	u2640
  1975     0039                     u2641:
  1976     0039  2842               	goto	l1914
  1977     003A                     u2640:
  1978     003A                     l1912:
  1979     003A  3000               	movlw	0
  1980     003B  00B1               	movwf	___flmul@b+3
  1981     003C  3000               	movlw	0
  1982     003D  00B0               	movwf	___flmul@b+2
  1983     003E  3000               	movlw	0
  1984     003F  00AF               	movwf	___flmul@b+1
  1985     0040  3000               	movlw	0
  1986     0041  00AE               	movwf	___flmul@b
  1987     0042                     l1914:
  1988     0042  17B0               	bsf	___flmul@b+2,7
  1989     0043  284C               	goto	l1918
  1990     0044                     l1916:
  1991     0044  3000               	movlw	0
  1992     0045  00B1               	movwf	___flmul@b+3
  1993     0046  3000               	movlw	0
  1994     0047  00B0               	movwf	___flmul@b+2
  1995     0048  3000               	movlw	0
  1996     0049  00AF               	movwf	___flmul@b+1
  1997     004A  3000               	movlw	0
  1998     004B  00AE               	movwf	___flmul@b
  1999     004C                     l1918:
  2000     004C  0835               	movf	___flmul@a+3,w
  2001     004D  3980               	andlw	128
  2002     004E  00B6               	movwf	??___flmul
  2003     004F  0836               	movf	??___flmul,w
  2004     0050  06BB               	xorwf	___flmul@sign,f
  2005     0051                     l1920:
  2006     0051  0835               	movf	___flmul@a+3,w
  2007     0052  00B6               	movwf	??___flmul
  2008     0053  0736               	addwf	??___flmul,w
  2009     0054  00BC               	movwf	___flmul@aexp
  2010     0055                     l1922:
  2011     0055  1FB4               	btfss	___flmul@a+2,7
  2012     0056  2858               	goto	u2651
  2013     0057  2859               	goto	u2650
  2014     0058                     u2651:
  2015     0058  285A               	goto	l1926
  2016     0059                     u2650:
  2017     0059                     l1924:
  2018     0059  143C               	bsf	___flmul@aexp,0
  2019     005A                     l1926:
  2020     005A  083C               	movf	___flmul@aexp,w
  2021     005B  1903               	btfsc	3,2
  2022     005C  285E               	goto	u2661
  2023     005D  285F               	goto	u2660
  2024     005E                     u2661:
  2025     005E  286E               	goto	l1934
  2026     005F                     u2660:
  2027     005F                     l1928:
  2028     005F  0A3C               	incf	___flmul@aexp,w
  2029     0060  1D03               	btfss	3,2
  2030     0061  2863               	goto	u2671
  2031     0062  2864               	goto	u2670
  2032     0063                     u2671:
  2033     0063  286C               	goto	l1932
  2034     0064                     u2670:
  2035     0064                     l1930:
  2036     0064  3000               	movlw	0
  2037     0065  00B5               	movwf	___flmul@a+3
  2038     0066  3000               	movlw	0
  2039     0067  00B4               	movwf	___flmul@a+2
  2040     0068  3000               	movlw	0
  2041     0069  00B3               	movwf	___flmul@a+1
  2042     006A  3000               	movlw	0
  2043     006B  00B2               	movwf	___flmul@a
  2044     006C                     l1932:
  2045     006C  17B4               	bsf	___flmul@a+2,7
  2046     006D  2876               	goto	l1936
  2047     006E                     l1934:
  2048     006E  3000               	movlw	0
  2049     006F  00B5               	movwf	___flmul@a+3
  2050     0070  3000               	movlw	0
  2051     0071  00B4               	movwf	___flmul@a+2
  2052     0072  3000               	movlw	0
  2053     0073  00B3               	movwf	___flmul@a+1
  2054     0074  3000               	movlw	0
  2055     0075  00B2               	movwf	___flmul@a
  2056     0076                     l1936:
  2057     0076  083C               	movf	___flmul@aexp,w
  2058     0077  1903               	btfsc	3,2
  2059     0078  287A               	goto	u2681
  2060     0079  287B               	goto	u2680
  2061     007A                     u2681:
  2062     007A  2880               	goto	l1940
  2063     007B                     u2680:
  2064     007B                     l1938:
  2065     007B  0841               	movf	___flmul@bexp,w
  2066     007C  1D03               	btfss	3,2
  2067     007D  287F               	goto	u2691
  2068     007E  2880               	goto	u2690
  2069     007F                     u2691:
  2070     007F  2889               	goto	l1944
  2071     0080                     u2690:
  2072     0080                     l1940:
  2073     0080  3000               	movlw	0
  2074     0081  00B1               	movwf	?___flmul+3
  2075     0082  3000               	movlw	0
  2076     0083  00B0               	movwf	?___flmul+2
  2077     0084  3000               	movlw	0
  2078     0085  00AF               	movwf	?___flmul+1
  2079     0086  3000               	movlw	0
  2080     0087  00AE               	movwf	?___flmul
  2081     0088  2B66               	goto	l621
  2082     0089                     l1944:
  2083     0089  082E               	movf	___flmul@b,w
  2084     008A  00F4               	movwf	__Umul8_16@multiplicand
  2085     008B  0834               	movf	___flmul@a+2,w
  2086     008C  120A  118A  27D7  120A  118A  	fcall	__Umul8_16
  2087     0091  0875               	movf	?__Umul8_16+1,w
  2088     0092  1283               	bcf	3,5	;RP0=0, select bank0
  2089     0093  1303               	bcf	3,6	;RP1=0, select bank0
  2090     0094  00C7               	movwf	___flmul@temp+1
  2091     0095  0874               	movf	?__Umul8_16,w
  2092     0096  00C6               	movwf	___flmul@temp
  2093     0097                     l1946:
  2094     0097  0846               	movf	___flmul@temp,w
  2095     0098  00B6               	movwf	??___flmul
  2096     0099  01B7               	clrf	??___flmul+1
  2097     009A  01B8               	clrf	??___flmul+2
  2098     009B  01B9               	clrf	??___flmul+3
  2099     009C  0839               	movf	??___flmul+3,w
  2100     009D  00C0               	movwf	___flmul@grs+3
  2101     009E  0838               	movf	??___flmul+2,w
  2102     009F  00BF               	movwf	___flmul@grs+2
  2103     00A0  0837               	movf	??___flmul+1,w
  2104     00A1  00BE               	movwf	___flmul@grs+1
  2105     00A2  0836               	movf	??___flmul,w
  2106     00A3  00BD               	movwf	___flmul@grs
  2107     00A4                     l1948:
  2108     00A4  0847               	movf	___flmul@temp+1,w
  2109     00A5  00B6               	movwf	??___flmul
  2110     00A6  01B7               	clrf	??___flmul+1
  2111     00A7  01B8               	clrf	??___flmul+2
  2112     00A8  01B9               	clrf	??___flmul+3
  2113     00A9  0839               	movf	??___flmul+3,w
  2114     00AA  00C5               	movwf	___flmul@prod+3
  2115     00AB  0838               	movf	??___flmul+2,w
  2116     00AC  00C4               	movwf	___flmul@prod+2
  2117     00AD  0837               	movf	??___flmul+1,w
  2118     00AE  00C3               	movwf	___flmul@prod+1
  2119     00AF  0836               	movf	??___flmul,w
  2120     00B0  00C2               	movwf	___flmul@prod
  2121     00B1  082F               	movf	___flmul@b+1,w
  2122     00B2  00F4               	movwf	__Umul8_16@multiplicand
  2123     00B3  0833               	movf	___flmul@a+1,w
  2124     00B4  120A  118A  27D7  120A  118A  	fcall	__Umul8_16
  2125     00B9  0875               	movf	?__Umul8_16+1,w
  2126     00BA  1283               	bcf	3,5	;RP0=0, select bank0
  2127     00BB  1303               	bcf	3,6	;RP1=0, select bank0
  2128     00BC  00C7               	movwf	___flmul@temp+1
  2129     00BD  0874               	movf	?__Umul8_16,w
  2130     00BE  00C6               	movwf	___flmul@temp
  2131     00BF                     l1950:
  2132     00BF  0846               	movf	___flmul@temp,w
  2133     00C0  00B6               	movwf	??___flmul
  2134     00C1  01B7               	clrf	??___flmul+1
  2135     00C2  01B8               	clrf	??___flmul+2
  2136     00C3  01B9               	clrf	??___flmul+3
  2137     00C4  0836               	movf	??___flmul,w
  2138     00C5  07BD               	addwf	___flmul@grs,f
  2139     00C6  0837               	movf	??___flmul+1,w
  2140     00C7  1103               	clrz
  2141     00C8  1803               	skipnc
  2142     00C9  3E01               	addlw	1
  2143     00CA  1903               	skipnz
  2144     00CB  28CD               	goto	u2701
  2145     00CC  07BE               	addwf	___flmul@grs+1,f
  2146     00CD                     u2701:
  2147     00CD  0838               	movf	??___flmul+2,w
  2148     00CE  1103               	clrz
  2149     00CF  1803               	skipnc
  2150     00D0  3E01               	addlw	1
  2151     00D1  1903               	skipnz
  2152     00D2  28D4               	goto	u2702
  2153     00D3  07BF               	addwf	___flmul@grs+2,f
  2154     00D4                     u2702:
  2155     00D4  0839               	movf	??___flmul+3,w
  2156     00D5  1103               	clrz
  2157     00D6  1803               	skipnc
  2158     00D7  3E01               	addlw	1
  2159     00D8  1903               	skipnz
  2160     00D9  28DB               	goto	u2703
  2161     00DA  07C0               	addwf	___flmul@grs+3,f
  2162     00DB                     u2703:
  2163     00DB                     l1952:
  2164     00DB  0847               	movf	___flmul@temp+1,w
  2165     00DC  00B6               	movwf	??___flmul
  2166     00DD  01B7               	clrf	??___flmul+1
  2167     00DE  01B8               	clrf	??___flmul+2
  2168     00DF  01B9               	clrf	??___flmul+3
  2169     00E0  0836               	movf	??___flmul,w
  2170     00E1  07C2               	addwf	___flmul@prod,f
  2171     00E2  0837               	movf	??___flmul+1,w
  2172     00E3  1103               	clrz
  2173     00E4  1803               	skipnc
  2174     00E5  3E01               	addlw	1
  2175     00E6  1903               	skipnz
  2176     00E7  28E9               	goto	u2711
  2177     00E8  07C3               	addwf	___flmul@prod+1,f
  2178     00E9                     u2711:
  2179     00E9  0838               	movf	??___flmul+2,w
  2180     00EA  1103               	clrz
  2181     00EB  1803               	skipnc
  2182     00EC  3E01               	addlw	1
  2183     00ED  1903               	skipnz
  2184     00EE  28F0               	goto	u2712
  2185     00EF  07C4               	addwf	___flmul@prod+2,f
  2186     00F0                     u2712:
  2187     00F0  0839               	movf	??___flmul+3,w
  2188     00F1  1103               	clrz
  2189     00F2  1803               	skipnc
  2190     00F3  3E01               	addlw	1
  2191     00F4  1903               	skipnz
  2192     00F5  28F7               	goto	u2713
  2193     00F6  07C5               	addwf	___flmul@prod+3,f
  2194     00F7                     u2713:
  2195     00F7  0830               	movf	___flmul@b+2,w
  2196     00F8  00F4               	movwf	__Umul8_16@multiplicand
  2197     00F9  0832               	movf	___flmul@a,w
  2198     00FA  120A  118A  27D7  120A  118A  	fcall	__Umul8_16
  2199     00FF  0875               	movf	?__Umul8_16+1,w
  2200     0100  1283               	bcf	3,5	;RP0=0, select bank0
  2201     0101  1303               	bcf	3,6	;RP1=0, select bank0
  2202     0102  00C7               	movwf	___flmul@temp+1
  2203     0103  0874               	movf	?__Umul8_16,w
  2204     0104  00C6               	movwf	___flmul@temp
  2205     0105                     l1954:
  2206     0105  0846               	movf	___flmul@temp,w
  2207     0106  00B6               	movwf	??___flmul
  2208     0107  01B7               	clrf	??___flmul+1
  2209     0108  01B8               	clrf	??___flmul+2
  2210     0109  01B9               	clrf	??___flmul+3
  2211     010A  0836               	movf	??___flmul,w
  2212     010B  07BD               	addwf	___flmul@grs,f
  2213     010C  0837               	movf	??___flmul+1,w
  2214     010D  1103               	clrz
  2215     010E  1803               	skipnc
  2216     010F  3E01               	addlw	1
  2217     0110  1903               	skipnz
  2218     0111  2913               	goto	u2721
  2219     0112  07BE               	addwf	___flmul@grs+1,f
  2220     0113                     u2721:
  2221     0113  0838               	movf	??___flmul+2,w
  2222     0114  1103               	clrz
  2223     0115  1803               	skipnc
  2224     0116  3E01               	addlw	1
  2225     0117  1903               	skipnz
  2226     0118  291A               	goto	u2722
  2227     0119  07BF               	addwf	___flmul@grs+2,f
  2228     011A                     u2722:
  2229     011A  0839               	movf	??___flmul+3,w
  2230     011B  1103               	clrz
  2231     011C  1803               	skipnc
  2232     011D  3E01               	addlw	1
  2233     011E  1903               	skipnz
  2234     011F  2921               	goto	u2723
  2235     0120  07C0               	addwf	___flmul@grs+3,f
  2236     0121                     u2723:
  2237     0121                     l1956:
  2238     0121  0847               	movf	___flmul@temp+1,w
  2239     0122  00B6               	movwf	??___flmul
  2240     0123  01B7               	clrf	??___flmul+1
  2241     0124  01B8               	clrf	??___flmul+2
  2242     0125  01B9               	clrf	??___flmul+3
  2243     0126  0836               	movf	??___flmul,w
  2244     0127  07C2               	addwf	___flmul@prod,f
  2245     0128  0837               	movf	??___flmul+1,w
  2246     0129  1103               	clrz
  2247     012A  1803               	skipnc
  2248     012B  3E01               	addlw	1
  2249     012C  1903               	skipnz
  2250     012D  292F               	goto	u2731
  2251     012E  07C3               	addwf	___flmul@prod+1,f
  2252     012F                     u2731:
  2253     012F  0838               	movf	??___flmul+2,w
  2254     0130  1103               	clrz
  2255     0131  1803               	skipnc
  2256     0132  3E01               	addlw	1
  2257     0133  1903               	skipnz
  2258     0134  2936               	goto	u2732
  2259     0135  07C4               	addwf	___flmul@prod+2,f
  2260     0136                     u2732:
  2261     0136  0839               	movf	??___flmul+3,w
  2262     0137  1103               	clrz
  2263     0138  1803               	skipnc
  2264     0139  3E01               	addlw	1
  2265     013A  1903               	skipnz
  2266     013B  293D               	goto	u2733
  2267     013C  07C5               	addwf	___flmul@prod+3,f
  2268     013D                     u2733:
  2269     013D                     l1958:
  2270     013D  3008               	movlw	8
  2271     013E  00B6               	movwf	??___flmul
  2272     013F                     u2745:
  2273     013F  1003               	clrc
  2274     0140  0DBD               	rlf	___flmul@grs,f
  2275     0141  0DBE               	rlf	___flmul@grs+1,f
  2276     0142  0DBF               	rlf	___flmul@grs+2,f
  2277     0143  0DC0               	rlf	___flmul@grs+3,f
  2278     0144  0BB6               	decfsz	??___flmul,f
  2279     0145  293F               	goto	u2745
  2280     0146                     l1960:
  2281     0146  082F               	movf	___flmul@b+1,w
  2282     0147  00F4               	movwf	__Umul8_16@multiplicand
  2283     0148  0832               	movf	___flmul@a,w
  2284     0149  120A  118A  27D7  120A  118A  	fcall	__Umul8_16
  2285     014E  0875               	movf	?__Umul8_16+1,w
  2286     014F  1283               	bcf	3,5	;RP0=0, select bank0
  2287     0150  1303               	bcf	3,6	;RP1=0, select bank0
  2288     0151  00C7               	movwf	___flmul@temp+1
  2289     0152  0874               	movf	?__Umul8_16,w
  2290     0153  00C6               	movwf	___flmul@temp
  2291     0154                     l1962:
  2292     0154  0846               	movf	___flmul@temp,w
  2293     0155  00B6               	movwf	??___flmul
  2294     0156  0847               	movf	___flmul@temp+1,w
  2295     0157  00B7               	movwf	??___flmul+1
  2296     0158  01B8               	clrf	??___flmul+2
  2297     0159  01B9               	clrf	??___flmul+3
  2298     015A  0836               	movf	??___flmul,w
  2299     015B  07BD               	addwf	___flmul@grs,f
  2300     015C  0837               	movf	??___flmul+1,w
  2301     015D  1103               	clrz
  2302     015E  1803               	skipnc
  2303     015F  3E01               	addlw	1
  2304     0160  1903               	skipnz
  2305     0161  2963               	goto	u2751
  2306     0162  07BE               	addwf	___flmul@grs+1,f
  2307     0163                     u2751:
  2308     0163  0838               	movf	??___flmul+2,w
  2309     0164  1103               	clrz
  2310     0165  1803               	skipnc
  2311     0166  3E01               	addlw	1
  2312     0167  1903               	skipnz
  2313     0168  296A               	goto	u2752
  2314     0169  07BF               	addwf	___flmul@grs+2,f
  2315     016A                     u2752:
  2316     016A  0839               	movf	??___flmul+3,w
  2317     016B  1103               	clrz
  2318     016C  1803               	skipnc
  2319     016D  3E01               	addlw	1
  2320     016E  1903               	skipnz
  2321     016F  2971               	goto	u2753
  2322     0170  07C0               	addwf	___flmul@grs+3,f
  2323     0171                     u2753:
  2324     0171                     l1964:
  2325     0171  082E               	movf	___flmul@b,w
  2326     0172  00F4               	movwf	__Umul8_16@multiplicand
  2327     0173  0833               	movf	___flmul@a+1,w
  2328     0174  120A  118A  27D7  120A  118A  	fcall	__Umul8_16
  2329     0179  0875               	movf	?__Umul8_16+1,w
  2330     017A  1283               	bcf	3,5	;RP0=0, select bank0
  2331     017B  1303               	bcf	3,6	;RP1=0, select bank0
  2332     017C  00C7               	movwf	___flmul@temp+1
  2333     017D  0874               	movf	?__Umul8_16,w
  2334     017E  00C6               	movwf	___flmul@temp
  2335     017F                     l1966:
  2336     017F  0846               	movf	___flmul@temp,w
  2337     0180  00B6               	movwf	??___flmul
  2338     0181  0847               	movf	___flmul@temp+1,w
  2339     0182  00B7               	movwf	??___flmul+1
  2340     0183  01B8               	clrf	??___flmul+2
  2341     0184  01B9               	clrf	??___flmul+3
  2342     0185  0836               	movf	??___flmul,w
  2343     0186  07BD               	addwf	___flmul@grs,f
  2344     0187  0837               	movf	??___flmul+1,w
  2345     0188  1103               	clrz
  2346     0189  1803               	skipnc
  2347     018A  3E01               	addlw	1
  2348     018B  1903               	skipnz
  2349     018C  298E               	goto	u2761
  2350     018D  07BE               	addwf	___flmul@grs+1,f
  2351     018E                     u2761:
  2352     018E  0838               	movf	??___flmul+2,w
  2353     018F  1103               	clrz
  2354     0190  1803               	skipnc
  2355     0191  3E01               	addlw	1
  2356     0192  1903               	skipnz
  2357     0193  2995               	goto	u2762
  2358     0194  07BF               	addwf	___flmul@grs+2,f
  2359     0195                     u2762:
  2360     0195  0839               	movf	??___flmul+3,w
  2361     0196  1103               	clrz
  2362     0197  1803               	skipnc
  2363     0198  3E01               	addlw	1
  2364     0199  1903               	skipnz
  2365     019A  299C               	goto	u2763
  2366     019B  07C0               	addwf	___flmul@grs+3,f
  2367     019C                     u2763:
  2368     019C                     l1968:
  2369     019C  3008               	movlw	8
  2370     019D  00B6               	movwf	??___flmul
  2371     019E                     u2775:
  2372     019E  1003               	clrc
  2373     019F  0DBD               	rlf	___flmul@grs,f
  2374     01A0  0DBE               	rlf	___flmul@grs+1,f
  2375     01A1  0DBF               	rlf	___flmul@grs+2,f
  2376     01A2  0DC0               	rlf	___flmul@grs+3,f
  2377     01A3  0BB6               	decfsz	??___flmul,f
  2378     01A4  299E               	goto	u2775
  2379     01A5  082E               	movf	___flmul@b,w
  2380     01A6  00F4               	movwf	__Umul8_16@multiplicand
  2381     01A7  0832               	movf	___flmul@a,w
  2382     01A8  120A  118A  27D7  120A  118A  	fcall	__Umul8_16
  2383     01AD  0875               	movf	?__Umul8_16+1,w
  2384     01AE  1283               	bcf	3,5	;RP0=0, select bank0
  2385     01AF  1303               	bcf	3,6	;RP1=0, select bank0
  2386     01B0  00C7               	movwf	___flmul@temp+1
  2387     01B1  0874               	movf	?__Umul8_16,w
  2388     01B2  00C6               	movwf	___flmul@temp
  2389     01B3                     l1970:
  2390     01B3  0846               	movf	___flmul@temp,w
  2391     01B4  00B6               	movwf	??___flmul
  2392     01B5  0847               	movf	___flmul@temp+1,w
  2393     01B6  00B7               	movwf	??___flmul+1
  2394     01B7  01B8               	clrf	??___flmul+2
  2395     01B8  01B9               	clrf	??___flmul+3
  2396     01B9  0836               	movf	??___flmul,w
  2397     01BA  07BD               	addwf	___flmul@grs,f
  2398     01BB  0837               	movf	??___flmul+1,w
  2399     01BC  1103               	clrz
  2400     01BD  1803               	skipnc
  2401     01BE  3E01               	addlw	1
  2402     01BF  1903               	skipnz
  2403     01C0  29C2               	goto	u2781
  2404     01C1  07BE               	addwf	___flmul@grs+1,f
  2405     01C2                     u2781:
  2406     01C2  0838               	movf	??___flmul+2,w
  2407     01C3  1103               	clrz
  2408     01C4  1803               	skipnc
  2409     01C5  3E01               	addlw	1
  2410     01C6  1903               	skipnz
  2411     01C7  29C9               	goto	u2782
  2412     01C8  07BF               	addwf	___flmul@grs+2,f
  2413     01C9                     u2782:
  2414     01C9  0839               	movf	??___flmul+3,w
  2415     01CA  1103               	clrz
  2416     01CB  1803               	skipnc
  2417     01CC  3E01               	addlw	1
  2418     01CD  1903               	skipnz
  2419     01CE  29D0               	goto	u2783
  2420     01CF  07C0               	addwf	___flmul@grs+3,f
  2421     01D0                     u2783:
  2422     01D0                     l1972:
  2423     01D0  082F               	movf	___flmul@b+1,w
  2424     01D1  00F4               	movwf	__Umul8_16@multiplicand
  2425     01D2  0834               	movf	___flmul@a+2,w
  2426     01D3  120A  118A  27D7  120A  118A  	fcall	__Umul8_16
  2427     01D8  0875               	movf	?__Umul8_16+1,w
  2428     01D9  1283               	bcf	3,5	;RP0=0, select bank0
  2429     01DA  1303               	bcf	3,6	;RP1=0, select bank0
  2430     01DB  00C7               	movwf	___flmul@temp+1
  2431     01DC  0874               	movf	?__Umul8_16,w
  2432     01DD  00C6               	movwf	___flmul@temp
  2433     01DE  0846               	movf	___flmul@temp,w
  2434     01DF  00B6               	movwf	??___flmul
  2435     01E0  0847               	movf	___flmul@temp+1,w
  2436     01E1  00B7               	movwf	??___flmul+1
  2437     01E2  01B8               	clrf	??___flmul+2
  2438     01E3  01B9               	clrf	??___flmul+3
  2439     01E4  0836               	movf	??___flmul,w
  2440     01E5  07C2               	addwf	___flmul@prod,f
  2441     01E6  0837               	movf	??___flmul+1,w
  2442     01E7  1103               	clrz
  2443     01E8  1803               	skipnc
  2444     01E9  3E01               	addlw	1
  2445     01EA  1903               	skipnz
  2446     01EB  29ED               	goto	u2791
  2447     01EC  07C3               	addwf	___flmul@prod+1,f
  2448     01ED                     u2791:
  2449     01ED  0838               	movf	??___flmul+2,w
  2450     01EE  1103               	clrz
  2451     01EF  1803               	skipnc
  2452     01F0  3E01               	addlw	1
  2453     01F1  1903               	skipnz
  2454     01F2  29F4               	goto	u2792
  2455     01F3  07C4               	addwf	___flmul@prod+2,f
  2456     01F4                     u2792:
  2457     01F4  0839               	movf	??___flmul+3,w
  2458     01F5  1103               	clrz
  2459     01F6  1803               	skipnc
  2460     01F7  3E01               	addlw	1
  2461     01F8  1903               	skipnz
  2462     01F9  29FB               	goto	u2793
  2463     01FA  07C5               	addwf	___flmul@prod+3,f
  2464     01FB                     u2793:
  2465     01FB                     l1974:
  2466     01FB  0830               	movf	___flmul@b+2,w
  2467     01FC  00F4               	movwf	__Umul8_16@multiplicand
  2468     01FD  0833               	movf	___flmul@a+1,w
  2469     01FE  120A  118A  27D7  120A  118A  	fcall	__Umul8_16
  2470     0203  0875               	movf	?__Umul8_16+1,w
  2471     0204  1283               	bcf	3,5	;RP0=0, select bank0
  2472     0205  1303               	bcf	3,6	;RP1=0, select bank0
  2473     0206  00C7               	movwf	___flmul@temp+1
  2474     0207  0874               	movf	?__Umul8_16,w
  2475     0208  00C6               	movwf	___flmul@temp
  2476     0209                     l1976:
  2477     0209  0846               	movf	___flmul@temp,w
  2478     020A  00B6               	movwf	??___flmul
  2479     020B  0847               	movf	___flmul@temp+1,w
  2480     020C  00B7               	movwf	??___flmul+1
  2481     020D  01B8               	clrf	??___flmul+2
  2482     020E  01B9               	clrf	??___flmul+3
  2483     020F  0836               	movf	??___flmul,w
  2484     0210  07C2               	addwf	___flmul@prod,f
  2485     0211  0837               	movf	??___flmul+1,w
  2486     0212  1103               	clrz
  2487     0213  1803               	skipnc
  2488     0214  3E01               	addlw	1
  2489     0215  1903               	skipnz
  2490     0216  2A18               	goto	u2801
  2491     0217  07C3               	addwf	___flmul@prod+1,f
  2492     0218                     u2801:
  2493     0218  0838               	movf	??___flmul+2,w
  2494     0219  1103               	clrz
  2495     021A  1803               	skipnc
  2496     021B  3E01               	addlw	1
  2497     021C  1903               	skipnz
  2498     021D  2A1F               	goto	u2802
  2499     021E  07C4               	addwf	___flmul@prod+2,f
  2500     021F                     u2802:
  2501     021F  0839               	movf	??___flmul+3,w
  2502     0220  1103               	clrz
  2503     0221  1803               	skipnc
  2504     0222  3E01               	addlw	1
  2505     0223  1903               	skipnz
  2506     0224  2A26               	goto	u2803
  2507     0225  07C5               	addwf	___flmul@prod+3,f
  2508     0226                     u2803:
  2509     0226  0830               	movf	___flmul@b+2,w
  2510     0227  00F4               	movwf	__Umul8_16@multiplicand
  2511     0228  0834               	movf	___flmul@a+2,w
  2512     0229  120A  118A  27D7  120A  118A  	fcall	__Umul8_16
  2513     022E  0875               	movf	?__Umul8_16+1,w
  2514     022F  1283               	bcf	3,5	;RP0=0, select bank0
  2515     0230  1303               	bcf	3,6	;RP1=0, select bank0
  2516     0231  00C7               	movwf	___flmul@temp+1
  2517     0232  0874               	movf	?__Umul8_16,w
  2518     0233  00C6               	movwf	___flmul@temp
  2519     0234                     l1978:
  2520     0234  0846               	movf	___flmul@temp,w
  2521     0235  00B6               	movwf	??___flmul
  2522     0236  0847               	movf	___flmul@temp+1,w
  2523     0237  00B7               	movwf	??___flmul+1
  2524     0238  01B8               	clrf	??___flmul+2
  2525     0239  01B9               	clrf	??___flmul+3
  2526     023A  3008               	movlw	8
  2527     023B                     u2815:
  2528     023B  1003               	clrc
  2529     023C  0DB6               	rlf	??___flmul,f
  2530     023D  0DB7               	rlf	??___flmul+1,f
  2531     023E  0DB8               	rlf	??___flmul+2,f
  2532     023F  0DB9               	rlf	??___flmul+3,f
  2533     0240                     u2810:
  2534     0240  3EFF               	addlw	-1
  2535     0241  1D03               	skipz
  2536     0242  2A3B               	goto	u2815
  2537     0243  0836               	movf	??___flmul,w
  2538     0244  07C2               	addwf	___flmul@prod,f
  2539     0245  0837               	movf	??___flmul+1,w
  2540     0246  1103               	clrz
  2541     0247  1803               	skipnc
  2542     0248  3E01               	addlw	1
  2543     0249  1903               	skipnz
  2544     024A  2A4C               	goto	u2821
  2545     024B  07C3               	addwf	___flmul@prod+1,f
  2546     024C                     u2821:
  2547     024C  0838               	movf	??___flmul+2,w
  2548     024D  1103               	clrz
  2549     024E  1803               	skipnc
  2550     024F  3E01               	addlw	1
  2551     0250  1903               	skipnz
  2552     0251  2A53               	goto	u2822
  2553     0252  07C4               	addwf	___flmul@prod+2,f
  2554     0253                     u2822:
  2555     0253  0839               	movf	??___flmul+3,w
  2556     0254  1103               	clrz
  2557     0255  1803               	skipnc
  2558     0256  3E01               	addlw	1
  2559     0257  1903               	skipnz
  2560     0258  2A5A               	goto	u2823
  2561     0259  07C5               	addwf	___flmul@prod+3,f
  2562     025A                     u2823:
  2563     025A                     l1980:
  2564     025A  083D               	movf	___flmul@grs,w
  2565     025B  00B6               	movwf	??___flmul
  2566     025C  083E               	movf	___flmul@grs+1,w
  2567     025D  00B7               	movwf	??___flmul+1
  2568     025E  083F               	movf	___flmul@grs+2,w
  2569     025F  00B8               	movwf	??___flmul+2
  2570     0260  0840               	movf	___flmul@grs+3,w
  2571     0261  00B9               	movwf	??___flmul+3
  2572     0262  3018               	movlw	24
  2573     0263                     u2835:
  2574     0263  1003               	clrc
  2575     0264  0CB9               	rrf	??___flmul+3,f
  2576     0265  0CB8               	rrf	??___flmul+2,f
  2577     0266  0CB7               	rrf	??___flmul+1,f
  2578     0267  0CB6               	rrf	??___flmul,f
  2579     0268                     u2830:
  2580     0268  3EFF               	addlw	-1
  2581     0269  1D03               	skipz
  2582     026A  2A63               	goto	u2835
  2583     026B  0836               	movf	??___flmul,w
  2584     026C  07C2               	addwf	___flmul@prod,f
  2585     026D  0837               	movf	??___flmul+1,w
  2586     026E  1103               	clrz
  2587     026F  1803               	skipnc
  2588     0270  3E01               	addlw	1
  2589     0271  1903               	skipnz
  2590     0272  2A74               	goto	u2841
  2591     0273  07C3               	addwf	___flmul@prod+1,f
  2592     0274                     u2841:
  2593     0274  0838               	movf	??___flmul+2,w
  2594     0275  1103               	clrz
  2595     0276  1803               	skipnc
  2596     0277  3E01               	addlw	1
  2597     0278  1903               	skipnz
  2598     0279  2A7B               	goto	u2842
  2599     027A  07C4               	addwf	___flmul@prod+2,f
  2600     027B                     u2842:
  2601     027B  0839               	movf	??___flmul+3,w
  2602     027C  1103               	clrz
  2603     027D  1803               	skipnc
  2604     027E  3E01               	addlw	1
  2605     027F  1903               	skipnz
  2606     0280  2A82               	goto	u2843
  2607     0281  07C5               	addwf	___flmul@prod+3,f
  2608     0282                     u2843:
  2609     0282                     l1982:
  2610     0282  3008               	movlw	8
  2611     0283  00B6               	movwf	??___flmul
  2612     0284                     u2855:
  2613     0284  1003               	clrc
  2614     0285  0DBD               	rlf	___flmul@grs,f
  2615     0286  0DBE               	rlf	___flmul@grs+1,f
  2616     0287  0DBF               	rlf	___flmul@grs+2,f
  2617     0288  0DC0               	rlf	___flmul@grs+3,f
  2618     0289  0BB6               	decfsz	??___flmul,f
  2619     028A  2A84               	goto	u2855
  2620     028B                     l1984:
  2621     028B  0841               	movf	___flmul@bexp,w
  2622     028C  073C               	addwf	___flmul@aexp,w
  2623     028D  00B6               	movwf	??___flmul
  2624     028E  01B7               	clrf	??___flmul+1
  2625     028F  0DB7               	rlf	??___flmul+1,f
  2626     0290  0836               	movf	??___flmul,w
  2627     0291  3E82               	addlw	130
  2628     0292  00C6               	movwf	___flmul@temp
  2629     0293  0837               	movf	??___flmul+1,w
  2630     0294  1803               	skipnc
  2631     0295  3E01               	addlw	1
  2632     0296  3EFF               	addlw	255
  2633     0297  00C7               	movwf	___flmul@temp+1
  2634     0298  2AB6               	goto	l1996
  2635     0299                     l1986:
  2636     0299  3001               	movlw	1
  2637     029A  00B6               	movwf	??___flmul
  2638     029B                     u2865:
  2639     029B  1003               	clrc
  2640     029C  0DC2               	rlf	___flmul@prod,f
  2641     029D  0DC3               	rlf	___flmul@prod+1,f
  2642     029E  0DC4               	rlf	___flmul@prod+2,f
  2643     029F  0DC5               	rlf	___flmul@prod+3,f
  2644     02A0  0BB6               	decfsz	??___flmul,f
  2645     02A1  2A9B               	goto	u2865
  2646     02A2                     l1988:
  2647     02A2  1FC0               	btfss	___flmul@grs+3,7
  2648     02A3  2AA5               	goto	u2871
  2649     02A4  2AA6               	goto	u2870
  2650     02A5                     u2871:
  2651     02A5  2AA7               	goto	l1992
  2652     02A6                     u2870:
  2653     02A6                     l1990:
  2654     02A6  1442               	bsf	___flmul@prod,0
  2655     02A7                     l1992:
  2656     02A7  3001               	movlw	1
  2657     02A8  00B6               	movwf	??___flmul
  2658     02A9                     u2885:
  2659     02A9  1003               	clrc
  2660     02AA  0DBD               	rlf	___flmul@grs,f
  2661     02AB  0DBE               	rlf	___flmul@grs+1,f
  2662     02AC  0DBF               	rlf	___flmul@grs+2,f
  2663     02AD  0DC0               	rlf	___flmul@grs+3,f
  2664     02AE  0BB6               	decfsz	??___flmul,f
  2665     02AF  2AA9               	goto	u2885
  2666     02B0                     l1994:
  2667     02B0  30FF               	movlw	255
  2668     02B1  07C6               	addwf	___flmul@temp,f
  2669     02B2  1803               	skipnc
  2670     02B3  0AC7               	incf	___flmul@temp+1,f
  2671     02B4  30FF               	movlw	255
  2672     02B5  07C7               	addwf	___flmul@temp+1,f
  2673     02B6                     l1996:
  2674     02B6  1FC4               	btfss	___flmul@prod+2,7
  2675     02B7  2AB9               	goto	u2891
  2676     02B8  2ABA               	goto	u2890
  2677     02B9                     u2891:
  2678     02B9  2A99               	goto	l1986
  2679     02BA                     u2890:
  2680     02BA                     l1998:
  2681     02BA  01BC               	clrf	___flmul@aexp
  2682     02BB                     l2000:
  2683     02BB  1FC0               	btfss	___flmul@grs+3,7
  2684     02BC  2ABE               	goto	u2901
  2685     02BD  2ABF               	goto	u2900
  2686     02BE                     u2901:
  2687     02BE  2ADB               	goto	l2008
  2688     02BF                     u2900:
  2689     02BF                     l2002:
  2690     02BF  30FF               	movlw	255
  2691     02C0  053D               	andwf	___flmul@grs,w
  2692     02C1  00B6               	movwf	??___flmul
  2693     02C2  30FF               	movlw	255
  2694     02C3  053E               	andwf	___flmul@grs+1,w
  2695     02C4  00B7               	movwf	??___flmul+1
  2696     02C5  30FF               	movlw	255
  2697     02C6  053F               	andwf	___flmul@grs+2,w
  2698     02C7  00B8               	movwf	??___flmul+2
  2699     02C8  307F               	movlw	127
  2700     02C9  0540               	andwf	___flmul@grs+3,w
  2701     02CA  00B9               	movwf	??___flmul+3
  2702     02CB  0839               	movf	??___flmul+3,w
  2703     02CC  0438               	iorwf	??___flmul+2,w
  2704     02CD  0437               	iorwf	??___flmul+1,w
  2705     02CE  0436               	iorwf	??___flmul,w
  2706     02CF  1903               	skipnz
  2707     02D0  2AD2               	goto	u2911
  2708     02D1  2AD3               	goto	u2910
  2709     02D2                     u2911:
  2710     02D2  2AD6               	goto	l627
  2711     02D3                     u2910:
  2712     02D3                     l2004:
  2713     02D3  01BC               	clrf	___flmul@aexp
  2714     02D4  0ABC               	incf	___flmul@aexp,f
  2715     02D5  2ADB               	goto	l2008
  2716     02D6                     l627:
  2717     02D6  1C42               	btfss	___flmul@prod,0
  2718     02D7  2AD9               	goto	u2921
  2719     02D8  2ADA               	goto	u2920
  2720     02D9                     u2921:
  2721     02D9  2ADB               	goto	l2008
  2722     02DA                     u2920:
  2723     02DA  2AD3               	goto	l2004
  2724     02DB                     l2008:
  2725     02DB  083C               	movf	___flmul@aexp,w
  2726     02DC  1903               	btfsc	3,2
  2727     02DD  2ADF               	goto	u2931
  2728     02DE  2AE0               	goto	u2930
  2729     02DF                     u2931:
  2730     02DF  2B11               	goto	l2018
  2731     02E0                     u2930:
  2732     02E0                     l2010:
  2733     02E0  3001               	movlw	1
  2734     02E1  07C2               	addwf	___flmul@prod,f
  2735     02E2  3000               	movlw	0
  2736     02E3  1803               	skipnc
  2737     02E4  3001               	movlw	1
  2738     02E5  07C3               	addwf	___flmul@prod+1,f
  2739     02E6  3000               	movlw	0
  2740     02E7  1803               	skipnc
  2741     02E8  3001               	movlw	1
  2742     02E9  07C4               	addwf	___flmul@prod+2,f
  2743     02EA  3000               	movlw	0
  2744     02EB  1803               	skipnc
  2745     02EC  3001               	movlw	1
  2746     02ED  07C5               	addwf	___flmul@prod+3,f
  2747     02EE                     l2012:
  2748     02EE  1C45               	btfss	___flmul@prod+3,0
  2749     02EF  2AF1               	goto	u2941
  2750     02F0  2AF2               	goto	u2940
  2751     02F1                     u2941:
  2752     02F1  2B11               	goto	l2018
  2753     02F2                     u2940:
  2754     02F2                     l2014:
  2755     02F2  0842               	movf	___flmul@prod,w
  2756     02F3  00B6               	movwf	??___flmul
  2757     02F4  0843               	movf	___flmul@prod+1,w
  2758     02F5  00B7               	movwf	??___flmul+1
  2759     02F6  0844               	movf	___flmul@prod+2,w
  2760     02F7  00B8               	movwf	??___flmul+2
  2761     02F8  0845               	movf	___flmul@prod+3,w
  2762     02F9  00B9               	movwf	??___flmul+3
  2763     02FA  3001               	movlw	1
  2764     02FB  00BA               	movwf	??___flmul+4
  2765     02FC                     u2955:
  2766     02FC  0D39               	rlf	??___flmul+3,w
  2767     02FD  0CB9               	rrf	??___flmul+3,f
  2768     02FE  0CB8               	rrf	??___flmul+2,f
  2769     02FF  0CB7               	rrf	??___flmul+1,f
  2770     0300  0CB6               	rrf	??___flmul,f
  2771     0301                     u2950:
  2772     0301  0BBA               	decfsz	??___flmul+4,f
  2773     0302  2AFC               	goto	u2955
  2774     0303  0839               	movf	??___flmul+3,w
  2775     0304  00C5               	movwf	___flmul@prod+3
  2776     0305  0838               	movf	??___flmul+2,w
  2777     0306  00C4               	movwf	___flmul@prod+2
  2778     0307  0837               	movf	??___flmul+1,w
  2779     0308  00C3               	movwf	___flmul@prod+1
  2780     0309  0836               	movf	??___flmul,w
  2781     030A  00C2               	movwf	___flmul@prod
  2782     030B                     l2016:
  2783     030B  3001               	movlw	1
  2784     030C  07C6               	addwf	___flmul@temp,f
  2785     030D  1803               	skipnc
  2786     030E  0AC7               	incf	___flmul@temp+1,f
  2787     030F  3000               	movlw	0
  2788     0310  07C7               	addwf	___flmul@temp+1,f
  2789     0311                     l2018:
  2790     0311  0847               	movf	___flmul@temp+1,w
  2791     0312  3A80               	xorlw	128
  2792     0313  00FF               	movwf	btemp+1
  2793     0314  3080               	movlw	128
  2794     0315  027F               	subwf	btemp+1,w
  2795     0316  1D03               	skipz
  2796     0317  2B1A               	goto	u2965
  2797     0318  30FF               	movlw	255
  2798     0319  0246               	subwf	___flmul@temp,w
  2799     031A                     u2965:
  2800     031A  1C03               	skipc
  2801     031B  2B1D               	goto	u2961
  2802     031C  2B1E               	goto	u2960
  2803     031D                     u2961:
  2804     031D  2B29               	goto	l2022
  2805     031E                     u2960:
  2806     031E                     l2020:
  2807     031E  307F               	movlw	127
  2808     031F  1283               	bcf	3,5	;RP0=0, select bank0
  2809     0320  1303               	bcf	3,6	;RP1=0, select bank0
  2810     0321  00C5               	movwf	___flmul@prod+3
  2811     0322  3080               	movlw	128
  2812     0323  00C4               	movwf	___flmul@prod+2
  2813     0324  3000               	movlw	0
  2814     0325  00C3               	movwf	___flmul@prod+1
  2815     0326  3000               	movlw	0
  2816     0327  00C2               	movwf	___flmul@prod
  2817     0328  2B5A               	goto	l633
  2818     0329                     l2022:
  2819     0329  1283               	bcf	3,5	;RP0=0, select bank0
  2820     032A  1303               	bcf	3,6	;RP1=0, select bank0
  2821     032B  0847               	movf	___flmul@temp+1,w
  2822     032C  3A80               	xorlw	128
  2823     032D  00FF               	movwf	btemp+1
  2824     032E  3080               	movlw	128
  2825     032F  027F               	subwf	btemp+1,w
  2826     0330  1D03               	skipz
  2827     0331  2B34               	goto	u2975
  2828     0332  3001               	movlw	1
  2829     0333  0246               	subwf	___flmul@temp,w
  2830     0334                     u2975:
  2831     0334  1803               	skipnc
  2832     0335  2B37               	goto	u2971
  2833     0336  2B38               	goto	u2970
  2834     0337                     u2971:
  2835     0337  2B44               	goto	l2028
  2836     0338                     u2970:
  2837     0338                     l2024:
  2838     0338  3000               	movlw	0
  2839     0339  1283               	bcf	3,5	;RP0=0, select bank0
  2840     033A  1303               	bcf	3,6	;RP1=0, select bank0
  2841     033B  00C5               	movwf	___flmul@prod+3
  2842     033C  3000               	movlw	0
  2843     033D  00C4               	movwf	___flmul@prod+2
  2844     033E  3000               	movlw	0
  2845     033F  00C3               	movwf	___flmul@prod+1
  2846     0340  3000               	movlw	0
  2847     0341  00C2               	movwf	___flmul@prod
  2848     0342                     l2026:
  2849     0342  01BB               	clrf	___flmul@sign
  2850     0343  2B5A               	goto	l633
  2851     0344                     l2028:
  2852     0344  1283               	bcf	3,5	;RP0=0, select bank0
  2853     0345  1303               	bcf	3,6	;RP1=0, select bank0
  2854     0346  0846               	movf	___flmul@temp,w
  2855     0347  00C1               	movwf	___flmul@bexp
  2856     0348  30FF               	movlw	255
  2857     0349  05C2               	andwf	___flmul@prod,f
  2858     034A  30FF               	movlw	255
  2859     034B  05C3               	andwf	___flmul@prod+1,f
  2860     034C  307F               	movlw	127
  2861     034D  05C4               	andwf	___flmul@prod+2,f
  2862     034E  3000               	movlw	0
  2863     034F  05C5               	andwf	___flmul@prod+3,f
  2864     0350                     l2030:
  2865     0350  1C41               	btfss	___flmul@bexp,0
  2866     0351  2B53               	goto	u2981
  2867     0352  2B54               	goto	u2980
  2868     0353                     u2981:
  2869     0353  2B55               	goto	l2034
  2870     0354                     u2980:
  2871     0354                     l2032:
  2872     0354  17C4               	bsf	___flmul@prod+2,7
  2873     0355                     l2034:
  2874     0355  0841               	movf	___flmul@bexp,w
  2875     0356  00B6               	movwf	??___flmul
  2876     0357  1003               	clrc
  2877     0358  0C36               	rrf	??___flmul,w
  2878     0359  00C5               	movwf	___flmul@prod+3
  2879     035A                     l633:
  2880     035A  083B               	movf	___flmul@sign,w
  2881     035B  00B6               	movwf	??___flmul
  2882     035C  0836               	movf	??___flmul,w
  2883     035D  04C5               	iorwf	___flmul@prod+3,f
  2884     035E                     l2036:
  2885     035E  0845               	movf	___flmul@prod+3,w
  2886     035F  00B1               	movwf	?___flmul+3
  2887     0360  0844               	movf	___flmul@prod+2,w
  2888     0361  00B0               	movwf	?___flmul+2
  2889     0362  0843               	movf	___flmul@prod+1,w
  2890     0363  00AF               	movwf	?___flmul+1
  2891     0364  0842               	movf	___flmul@prod,w
  2892     0365  00AE               	movwf	?___flmul
  2893     0366                     l621:
  2894     0366  0008               	return
  2895     0367                     __end_of___flmul:
  2896                           
  2897                           	psect	text8
  2898     07D7                     __ptext8:	
  2899 ;; *************** function __Umul8_16 *****************
  2900 ;; Defined at:
  2901 ;;		line 4 in file "C:\Program Files\Microchip\xc8\v2.40\pic\sources\c90\common\Umul8_16.c"
  2902 ;; Parameters:    Size  Location     Type
  2903 ;;  multiplier      1    wreg     unsigned char 
  2904 ;;  multiplicand    1    4[COMMON] unsigned char 
  2905 ;; Auto vars:     Size  Location     Type
  2906 ;;  multiplier      1    6[BANK0 ] unsigned char 
  2907 ;;  word_mpld       2    4[BANK0 ] unsigned int 
  2908 ;;  product         2    2[BANK0 ] unsigned int 
  2909 ;; Return value:  Size  Location     Type
  2910 ;;                  2    4[COMMON] unsigned int 
  2911 ;; Registers used:
  2912 ;;		wreg, status,2, status,0
  2913 ;; Tracked objects:
  2914 ;;		On entry : 0/0
  2915 ;;		On exit  : 0/0
  2916 ;;		Unchanged: 0/0
  2917 ;; Data sizes:     COMMON   BANK0   BANK1   BANK3   BANK2
  2918 ;;      Params:         2       0       0       0       0
  2919 ;;      Locals:         0       5       0       0       0
  2920 ;;      Temps:          0       2       0       0       0
  2921 ;;      Totals:         2       7       0       0       0
  2922 ;;Total ram usage:        9 bytes
  2923 ;; Hardware stack levels used: 1
  2924 ;; Hardware stack levels required when called: 1
  2925 ;; This function calls:
  2926 ;;		Nothing
  2927 ;; This function is called by:
  2928 ;;		___flmul
  2929 ;; This function uses a non-reentrant model
  2930 ;;
  2931                           
  2932     07D7                     __Umul8_16:	
  2933                           ;psect for function __Umul8_16
  2934                           
  2935                           
  2936                           ;incstack = 0
  2937                           ; Regs used in __Umul8_16: [wreg+status,2+status,0]
  2938                           ;__Umul8_16@multiplier stored from wreg
  2939     07D7  1283               	bcf	3,5	;RP0=0, select bank0
  2940     07D8  1303               	bcf	3,6	;RP1=0, select bank0
  2941     07D9  00A6               	movwf	__Umul8_16@multiplier
  2942     07DA                     l1850:
  2943     07DA  01A2               	clrf	__Umul8_16@product
  2944     07DB  01A3               	clrf	__Umul8_16@product+1
  2945     07DC                     l1852:
  2946     07DC  0874               	movf	__Umul8_16@multiplicand,w
  2947     07DD  00A0               	movwf	??__Umul8_16
  2948     07DE  01A1               	clrf	??__Umul8_16+1
  2949     07DF  0820               	movf	??__Umul8_16,w
  2950     07E0  00A4               	movwf	__Umul8_16@word_mpld
  2951     07E1  0821               	movf	??__Umul8_16+1,w
  2952     07E2  00A5               	movwf	__Umul8_16@word_mpld+1
  2953     07E3                     l1854:
  2954     07E3  1C26               	btfss	__Umul8_16@multiplier,0
  2955     07E4  2FE6               	goto	u2491
  2956     07E5  2FE7               	goto	u2490
  2957     07E6                     u2491:
  2958     07E6  2FED               	goto	l640
  2959     07E7                     u2490:
  2960     07E7                     l1856:
  2961     07E7  0824               	movf	__Umul8_16@word_mpld,w
  2962     07E8  07A2               	addwf	__Umul8_16@product,f
  2963     07E9  1803               	skipnc
  2964     07EA  0AA3               	incf	__Umul8_16@product+1,f
  2965     07EB  0825               	movf	__Umul8_16@word_mpld+1,w
  2966     07EC  07A3               	addwf	__Umul8_16@product+1,f
  2967     07ED                     l640:
  2968     07ED  3001               	movlw	1
  2969     07EE                     u2505:
  2970     07EE  1003               	clrc
  2971     07EF  0DA4               	rlf	__Umul8_16@word_mpld,f
  2972     07F0  0DA5               	rlf	__Umul8_16@word_mpld+1,f
  2973     07F1  3EFF               	addlw	-1
  2974     07F2  1D03               	skipz
  2975     07F3  2FEE               	goto	u2505
  2976     07F4  1003               	clrc
  2977     07F5  0CA6               	rrf	__Umul8_16@multiplier,f
  2978     07F6                     l1858:
  2979     07F6  0826               	movf	__Umul8_16@multiplier,w
  2980     07F7  1D03               	btfss	3,2
  2981     07F8  2FFA               	goto	u2511
  2982     07F9  2FFB               	goto	u2510
  2983     07FA                     u2511:
  2984     07FA  2FE3               	goto	l1854
  2985     07FB                     u2510:
  2986     07FB                     l1860:
  2987     07FB  0823               	movf	__Umul8_16@product+1,w
  2988     07FC  00F5               	movwf	?__Umul8_16+1
  2989     07FD  0822               	movf	__Umul8_16@product,w
  2990     07FE  00F4               	movwf	?__Umul8_16
  2991     07FF                     l642:
  2992     07FF  0008               	return
  2993     0800                     __end_of__Umul8_16:
  2994                           
  2995                           	psect	text9
  2996     0367                     __ptext9:	
  2997 ;; *************** function ___fladd *****************
  2998 ;; Defined at:
  2999 ;;		line 10 in file "C:\Program Files\Microchip\xc8\v2.40\pic\sources\c90\common\sprcadd.c"
  3000 ;; Parameters:    Size  Location     Type
  3001 ;;  b               4   40[BANK0 ] unsigned int 
  3002 ;;  a               4   44[BANK0 ] unsigned int 
  3003 ;; Auto vars:     Size  Location     Type
  3004 ;;  grs             1   59[BANK0 ] unsigned char 
  3005 ;;  bexp            1   58[BANK0 ] unsigned char 
  3006 ;;  aexp            1   57[BANK0 ] unsigned char 
  3007 ;;  signs           1   56[BANK0 ] unsigned char 
  3008 ;; Return value:  Size  Location     Type
  3009 ;;                  4   40[BANK0 ] unsigned char 
  3010 ;; Registers used:
  3011 ;;		wreg, status,2, status,0, btemp+1
  3012 ;; Tracked objects:
  3013 ;;		On entry : 0/0
  3014 ;;		On exit  : 0/0
  3015 ;;		Unchanged: 0/0
  3016 ;; Data sizes:     COMMON   BANK0   BANK1   BANK3   BANK2
  3017 ;;      Params:         0       8       0       0       0
  3018 ;;      Locals:         0       4       0       0       0
  3019 ;;      Temps:          0       8       0       0       0
  3020 ;;      Totals:         0      20       0       0       0
  3021 ;;Total ram usage:       20 bytes
  3022 ;; Hardware stack levels used: 1
  3023 ;; Hardware stack levels required when called: 1
  3024 ;; This function calls:
  3025 ;;		Nothing
  3026 ;; This function is called by:
  3027 ;;		_paso
  3028 ;; This function uses a non-reentrant model
  3029 ;;
  3030                           
  3031     0367                     ___fladd:	
  3032                           ;psect for function ___fladd
  3033                           
  3034     0367                     l1344:	
  3035                           ;incstack = 0
  3036                           ; Regs used in ___fladd: [wreg+status,2+status,0+btemp+1]
  3037                           
  3038     0367  1283               	bcf	3,5	;RP0=0, select bank0
  3039     0368  1303               	bcf	3,6	;RP1=0, select bank0
  3040     0369  084B               	movf	___fladd@b+3,w
  3041     036A  3980               	andlw	128
  3042     036B  00D8               	movwf	___fladd@signs
  3043     036C                     l1346:
  3044     036C  084B               	movf	___fladd@b+3,w
  3045     036D  00D0               	movwf	??___fladd
  3046     036E  0750               	addwf	??___fladd,w
  3047     036F  00DA               	movwf	___fladd@bexp
  3048     0370                     l1348:
  3049     0370  1FCA               	btfss	___fladd@b+2,7
  3050     0371  2B73               	goto	u1381
  3051     0372  2B74               	goto	u1380
  3052     0373                     u1381:
  3053     0373  2B75               	goto	l1352
  3054     0374                     u1380:
  3055     0374                     l1350:
  3056     0374  145A               	bsf	___fladd@bexp,0
  3057     0375                     l1352:
  3058     0375  085A               	movf	___fladd@bexp,w
  3059     0376  1903               	btfsc	3,2
  3060     0377  2B79               	goto	u1391
  3061     0378  2B7A               	goto	u1390
  3062     0379                     u1391:
  3063     0379  2B8A               	goto	l1362
  3064     037A                     u1390:
  3065     037A                     l1354:
  3066     037A  0A5A               	incf	___fladd@bexp,w
  3067     037B  1D03               	btfss	3,2
  3068     037C  2B7E               	goto	u1401
  3069     037D  2B7F               	goto	u1400
  3070     037E                     u1401:
  3071     037E  2B87               	goto	l1358
  3072     037F                     u1400:
  3073     037F                     l1356:
  3074     037F  3000               	movlw	0
  3075     0380  00CB               	movwf	___fladd@b+3
  3076     0381  3000               	movlw	0
  3077     0382  00CA               	movwf	___fladd@b+2
  3078     0383  3000               	movlw	0
  3079     0384  00C9               	movwf	___fladd@b+1
  3080     0385  3000               	movlw	0
  3081     0386  00C8               	movwf	___fladd@b
  3082     0387                     l1358:
  3083     0387  17CA               	bsf	___fladd@b+2,7
  3084     0388                     l1360:
  3085     0388  01CB               	clrf	___fladd@b+3
  3086     0389  2B92               	goto	l1364
  3087     038A                     l1362:
  3088     038A  3000               	movlw	0
  3089     038B  00CB               	movwf	___fladd@b+3
  3090     038C  3000               	movlw	0
  3091     038D  00CA               	movwf	___fladd@b+2
  3092     038E  3000               	movlw	0
  3093     038F  00C9               	movwf	___fladd@b+1
  3094     0390  3000               	movlw	0
  3095     0391  00C8               	movwf	___fladd@b
  3096     0392                     l1364:
  3097     0392  084F               	movf	___fladd@a+3,w
  3098     0393  3980               	andlw	128
  3099     0394  00D9               	movwf	___fladd@aexp
  3100     0395                     l1366:
  3101     0395  0859               	movf	___fladd@aexp,w
  3102     0396  0658               	xorwf	___fladd@signs,w
  3103     0397  1903               	skipnz
  3104     0398  2B9A               	goto	u1411
  3105     0399  2B9B               	goto	u1410
  3106     039A                     u1411:
  3107     039A  2B9C               	goto	l1370
  3108     039B                     u1410:
  3109     039B                     l1368:
  3110     039B  1758               	bsf	___fladd@signs,6
  3111     039C                     l1370:
  3112     039C  084F               	movf	___fladd@a+3,w
  3113     039D  00D0               	movwf	??___fladd
  3114     039E  0750               	addwf	??___fladd,w
  3115     039F  00D9               	movwf	___fladd@aexp
  3116     03A0                     l1372:
  3117     03A0  1FCE               	btfss	___fladd@a+2,7
  3118     03A1  2BA3               	goto	u1421
  3119     03A2  2BA4               	goto	u1420
  3120     03A3                     u1421:
  3121     03A3  2BA5               	goto	l1376
  3122     03A4                     u1420:
  3123     03A4                     l1374:
  3124     03A4  1459               	bsf	___fladd@aexp,0
  3125     03A5                     l1376:
  3126     03A5  0859               	movf	___fladd@aexp,w
  3127     03A6  1903               	btfsc	3,2
  3128     03A7  2BA9               	goto	u1431
  3129     03A8  2BAA               	goto	u1430
  3130     03A9                     u1431:
  3131     03A9  2BBA               	goto	l1386
  3132     03AA                     u1430:
  3133     03AA                     l1378:
  3134     03AA  0A59               	incf	___fladd@aexp,w
  3135     03AB  1D03               	btfss	3,2
  3136     03AC  2BAE               	goto	u1441
  3137     03AD  2BAF               	goto	u1440
  3138     03AE                     u1441:
  3139     03AE  2BB7               	goto	l1382
  3140     03AF                     u1440:
  3141     03AF                     l1380:
  3142     03AF  3000               	movlw	0
  3143     03B0  00CF               	movwf	___fladd@a+3
  3144     03B1  3000               	movlw	0
  3145     03B2  00CE               	movwf	___fladd@a+2
  3146     03B3  3000               	movlw	0
  3147     03B4  00CD               	movwf	___fladd@a+1
  3148     03B5  3000               	movlw	0
  3149     03B6  00CC               	movwf	___fladd@a
  3150     03B7                     l1382:
  3151     03B7  17CE               	bsf	___fladd@a+2,7
  3152     03B8                     l1384:
  3153     03B8  01CF               	clrf	___fladd@a+3
  3154     03B9  2BC2               	goto	l525
  3155     03BA                     l1386:
  3156     03BA  3000               	movlw	0
  3157     03BB  00CF               	movwf	___fladd@a+3
  3158     03BC  3000               	movlw	0
  3159     03BD  00CE               	movwf	___fladd@a+2
  3160     03BE  3000               	movlw	0
  3161     03BF  00CD               	movwf	___fladd@a+1
  3162     03C0  3000               	movlw	0
  3163     03C1  00CC               	movwf	___fladd@a
  3164     03C2                     l525:
  3165     03C2  085A               	movf	___fladd@bexp,w
  3166     03C3  0259               	subwf	___fladd@aexp,w
  3167     03C4  1803               	skipnc
  3168     03C5  2BC7               	goto	u1451
  3169     03C6  2BC8               	goto	u1450
  3170     03C7                     u1451:
  3171     03C7  2BEE               	goto	l1422
  3172     03C8                     u1450:
  3173     03C8                     l1388:
  3174     03C8  1F58               	btfss	___fladd@signs,6
  3175     03C9  2BCB               	goto	u1461
  3176     03CA  2BCC               	goto	u1460
  3177     03CB                     u1461:
  3178     03CB  2BD0               	goto	l1392
  3179     03CC                     u1460:
  3180     03CC                     l1390:
  3181     03CC  3080               	movlw	128
  3182     03CD  00D0               	movwf	??___fladd
  3183     03CE  0850               	movf	??___fladd,w
  3184     03CF  06D8               	xorwf	___fladd@signs,f
  3185     03D0                     l1392:
  3186     03D0  085A               	movf	___fladd@bexp,w
  3187     03D1  00DB               	movwf	___fladd@grs
  3188     03D2                     l1394:
  3189     03D2  0859               	movf	___fladd@aexp,w
  3190     03D3  00DA               	movwf	___fladd@bexp
  3191     03D4                     l1396:
  3192     03D4  085B               	movf	___fladd@grs,w
  3193     03D5  00D9               	movwf	___fladd@aexp
  3194     03D6                     l1398:
  3195     03D6  0848               	movf	___fladd@b,w
  3196     03D7  00DB               	movwf	___fladd@grs
  3197     03D8                     l1400:
  3198     03D8  084C               	movf	___fladd@a,w
  3199     03D9  00C8               	movwf	___fladd@b
  3200     03DA                     l1402:
  3201     03DA  085B               	movf	___fladd@grs,w
  3202     03DB  00CC               	movwf	___fladd@a
  3203     03DC                     l1404:
  3204     03DC  0849               	movf	___fladd@b+1,w
  3205     03DD  00DB               	movwf	___fladd@grs
  3206     03DE                     l1406:
  3207     03DE  084D               	movf	___fladd@a+1,w
  3208     03DF  00C9               	movwf	___fladd@b+1
  3209     03E0                     l1408:
  3210     03E0  085B               	movf	___fladd@grs,w
  3211     03E1  00CD               	movwf	___fladd@a+1
  3212     03E2                     l1410:
  3213     03E2  084A               	movf	___fladd@b+2,w
  3214     03E3  00DB               	movwf	___fladd@grs
  3215     03E4                     l1412:
  3216     03E4  084E               	movf	___fladd@a+2,w
  3217     03E5  00CA               	movwf	___fladd@b+2
  3218     03E6                     l1414:
  3219     03E6  085B               	movf	___fladd@grs,w
  3220     03E7  00CE               	movwf	___fladd@a+2
  3221     03E8                     l1416:
  3222     03E8  084B               	movf	___fladd@b+3,w
  3223     03E9  00DB               	movwf	___fladd@grs
  3224     03EA                     l1418:
  3225     03EA  084F               	movf	___fladd@a+3,w
  3226     03EB  00CB               	movwf	___fladd@b+3
  3227     03EC                     l1420:
  3228     03EC  085B               	movf	___fladd@grs,w
  3229     03ED  00CF               	movwf	___fladd@a+3
  3230     03EE                     l1422:
  3231     03EE  01DB               	clrf	___fladd@grs
  3232     03EF                     l1424:
  3233     03EF  0859               	movf	___fladd@aexp,w
  3234     03F0  00D0               	movwf	??___fladd
  3235     03F1  01D1               	clrf	??___fladd+1
  3236     03F2  0851               	movf	??___fladd+1,w
  3237     03F3  00D3               	movwf	??___fladd+3
  3238     03F4  085A               	movf	___fladd@bexp,w
  3239     03F5  0250               	subwf	??___fladd,w
  3240     03F6  00D2               	movwf	??___fladd+2
  3241     03F7  1C03               	skipc
  3242     03F8  03D3               	decf	??___fladd+3,f
  3243     03F9  0853               	movf	??___fladd+3,w
  3244     03FA  3A80               	xorlw	128
  3245     03FB  00FF               	movwf	btemp+1
  3246     03FC  3080               	movlw	128
  3247     03FD  027F               	subwf	btemp+1,w
  3248     03FE  1D03               	skipz
  3249     03FF  2C02               	goto	u1475
  3250     0400  301A               	movlw	26
  3251     0401  0252               	subwf	??___fladd+2,w
  3252     0402                     u1475:
  3253     0402  1C03               	skipc
  3254     0403  2C05               	goto	u1471
  3255     0404  2C06               	goto	u1470
  3256     0405                     u1471:
  3257     0405  2C3D               	goto	l1440
  3258     0406                     u1470:
  3259     0406                     l1426:
  3260     0406  1283               	bcf	3,5	;RP0=0, select bank0
  3261     0407  1303               	bcf	3,6	;RP1=0, select bank0
  3262     0408  084B               	movf	___fladd@b+3,w
  3263     0409  044A               	iorwf	___fladd@b+2,w
  3264     040A  0449               	iorwf	___fladd@b+1,w
  3265     040B  0448               	iorwf	___fladd@b,w
  3266     040C  1D03               	skipz
  3267     040D  2C0F               	goto	u1481
  3268     040E  2C11               	goto	u1480
  3269     040F                     u1481:
  3270     040F  3001               	movlw	1
  3271     0410  2C12               	goto	u1490
  3272     0411                     u1480:
  3273     0411  3000               	movlw	0
  3274     0412                     u1490:
  3275     0412  00DB               	movwf	___fladd@grs
  3276     0413  3000               	movlw	0
  3277     0414  00CB               	movwf	___fladd@b+3
  3278     0415  3000               	movlw	0
  3279     0416  00CA               	movwf	___fladd@b+2
  3280     0417  3000               	movlw	0
  3281     0418  00C9               	movwf	___fladd@b+1
  3282     0419  3000               	movlw	0
  3283     041A  00C8               	movwf	___fladd@b
  3284     041B  0859               	movf	___fladd@aexp,w
  3285     041C  00DA               	movwf	___fladd@bexp
  3286     041D  2C45               	goto	l529
  3287     041E                     l531:
  3288     041E  1C5B               	btfss	___fladd@grs,0
  3289     041F  2C21               	goto	u1501
  3290     0420  2C22               	goto	u1500
  3291     0421                     u1501:
  3292     0421  2C29               	goto	l1430
  3293     0422                     u1500:
  3294     0422                     l1428:
  3295     0422  085B               	movf	___fladd@grs,w
  3296     0423  00D0               	movwf	??___fladd
  3297     0424  1003               	clrc
  3298     0425  0C50               	rrf	??___fladd,w
  3299     0426  3801               	iorlw	1
  3300     0427  00DB               	movwf	___fladd@grs
  3301     0428  2C2B               	goto	l1432
  3302     0429                     l1430:
  3303     0429  1003               	clrc
  3304     042A  0CDB               	rrf	___fladd@grs,f
  3305     042B                     l1432:
  3306     042B  1C48               	btfss	___fladd@b,0
  3307     042C  2C2E               	goto	u1511
  3308     042D  2C2F               	goto	u1510
  3309     042E                     u1511:
  3310     042E  2C30               	goto	l1436
  3311     042F                     u1510:
  3312     042F                     l1434:
  3313     042F  17DB               	bsf	___fladd@grs,7
  3314     0430                     l1436:
  3315     0430  3001               	movlw	1
  3316     0431  00D0               	movwf	??___fladd
  3317     0432                     u1525:
  3318     0432  0D4B               	rlf	___fladd@b+3,w
  3319     0433  0CCB               	rrf	___fladd@b+3,f
  3320     0434  0CCA               	rrf	___fladd@b+2,f
  3321     0435  0CC9               	rrf	___fladd@b+1,f
  3322     0436  0CC8               	rrf	___fladd@b,f
  3323     0437  0BD0               	decfsz	??___fladd& (0+127),f
  3324     0438  2C32               	goto	u1525
  3325     0439                     l1438:
  3326     0439  3001               	movlw	1
  3327     043A  00D0               	movwf	??___fladd
  3328     043B  0850               	movf	??___fladd,w
  3329     043C  07DA               	addwf	___fladd@bexp,f
  3330     043D                     l1440:
  3331     043D  1283               	bcf	3,5	;RP0=0, select bank0
  3332     043E  1303               	bcf	3,6	;RP1=0, select bank0
  3333     043F  0859               	movf	___fladd@aexp,w
  3334     0440  025A               	subwf	___fladd@bexp,w
  3335     0441  1C03               	skipc
  3336     0442  2C44               	goto	u1531
  3337     0443  2C45               	goto	u1530
  3338     0444                     u1531:
  3339     0444  2C1E               	goto	l531
  3340     0445                     u1530:
  3341     0445                     l529:
  3342     0445  1B58               	btfsc	___fladd@signs,6
  3343     0446  2C48               	goto	u1541
  3344     0447  2C49               	goto	u1540
  3345     0448                     u1541:
  3346     0448  2C92               	goto	l1466
  3347     0449                     u1540:
  3348     0449                     l1442:
  3349     0449  085A               	movf	___fladd@bexp,w
  3350     044A  1D03               	btfss	3,2
  3351     044B  2C4D               	goto	u1551
  3352     044C  2C4E               	goto	u1550
  3353     044D                     u1551:
  3354     044D  2C57               	goto	l1448
  3355     044E                     u1550:
  3356     044E                     l1444:
  3357     044E  3000               	movlw	0
  3358     044F  00CB               	movwf	?___fladd+3
  3359     0450  3000               	movlw	0
  3360     0451  00CA               	movwf	?___fladd+2
  3361     0452  3000               	movlw	0
  3362     0453  00C9               	movwf	?___fladd+1
  3363     0454  3000               	movlw	0
  3364     0455  00C8               	movwf	?___fladd
  3365     0456  2DBE               	goto	l538
  3366     0457                     l1448:
  3367     0457  084C               	movf	___fladd@a,w
  3368     0458  07C8               	addwf	___fladd@b,f
  3369     0459  084D               	movf	___fladd@a+1,w
  3370     045A  1103               	clrz
  3371     045B  1803               	skipnc
  3372     045C  3E01               	addlw	1
  3373     045D  1903               	skipnz
  3374     045E  2C60               	goto	u1561
  3375     045F  07C9               	addwf	___fladd@b+1,f
  3376     0460                     u1561:
  3377     0460  084E               	movf	___fladd@a+2,w
  3378     0461  1103               	clrz
  3379     0462  1803               	skipnc
  3380     0463  3E01               	addlw	1
  3381     0464  1903               	skipnz
  3382     0465  2C67               	goto	u1562
  3383     0466  07CA               	addwf	___fladd@b+2,f
  3384     0467                     u1562:
  3385     0467  084F               	movf	___fladd@a+3,w
  3386     0468  1103               	clrz
  3387     0469  1803               	skipnc
  3388     046A  3E01               	addlw	1
  3389     046B  1903               	skipnz
  3390     046C  2C6E               	goto	u1563
  3391     046D  07CB               	addwf	___fladd@b+3,f
  3392     046E                     u1563:
  3393     046E                     l1450:
  3394     046E  1C4B               	btfss	___fladd@b+3,0
  3395     046F  2C71               	goto	u1571
  3396     0470  2C72               	goto	u1570
  3397     0471                     u1571:
  3398     0471  2D46               	goto	l1500
  3399     0472                     u1570:
  3400     0472                     l1452:
  3401     0472  1C5B               	btfss	___fladd@grs,0
  3402     0473  2C75               	goto	u1581
  3403     0474  2C76               	goto	u1580
  3404     0475                     u1581:
  3405     0475  2C7D               	goto	l1456
  3406     0476                     u1580:
  3407     0476                     l1454:
  3408     0476  085B               	movf	___fladd@grs,w
  3409     0477  00D0               	movwf	??___fladd
  3410     0478  1003               	clrc
  3411     0479  0C50               	rrf	??___fladd,w
  3412     047A  3801               	iorlw	1
  3413     047B  00DB               	movwf	___fladd@grs
  3414     047C  2C7F               	goto	l1458
  3415     047D                     l1456:
  3416     047D  1003               	clrc
  3417     047E  0CDB               	rrf	___fladd@grs,f
  3418     047F                     l1458:
  3419     047F  1C48               	btfss	___fladd@b,0
  3420     0480  2C82               	goto	u1591
  3421     0481  2C83               	goto	u1590
  3422     0482                     u1591:
  3423     0482  2C84               	goto	l1462
  3424     0483                     u1590:
  3425     0483                     l1460:
  3426     0483  17DB               	bsf	___fladd@grs,7
  3427     0484                     l1462:
  3428     0484  3001               	movlw	1
  3429     0485  00D0               	movwf	??___fladd
  3430     0486                     u1605:
  3431     0486  0D4B               	rlf	___fladd@b+3,w
  3432     0487  0CCB               	rrf	___fladd@b+3,f
  3433     0488  0CCA               	rrf	___fladd@b+2,f
  3434     0489  0CC9               	rrf	___fladd@b+1,f
  3435     048A  0CC8               	rrf	___fladd@b,f
  3436     048B  0BD0               	decfsz	??___fladd& (0+127),f
  3437     048C  2C86               	goto	u1605
  3438     048D                     l1464:
  3439     048D  3001               	movlw	1
  3440     048E  00D0               	movwf	??___fladd
  3441     048F  0850               	movf	??___fladd,w
  3442     0490  07DA               	addwf	___fladd@bexp,f
  3443     0491  2D46               	goto	l1500
  3444     0492                     l1466:
  3445     0492  084B               	movf	___fladd@b+3,w
  3446     0493  3A80               	xorlw	128
  3447     0494  00FF               	movwf	btemp+1
  3448     0495  084F               	movf	___fladd@a+3,w
  3449     0496  3A80               	xorlw	128
  3450     0497  027F               	subwf	btemp+1,w
  3451     0498  1D03               	skipz
  3452     0499  2CA4               	goto	u1613
  3453     049A  084E               	movf	___fladd@a+2,w
  3454     049B  024A               	subwf	___fladd@b+2,w
  3455     049C  1D03               	skipz
  3456     049D  2CA4               	goto	u1613
  3457     049E  084D               	movf	___fladd@a+1,w
  3458     049F  0249               	subwf	___fladd@b+1,w
  3459     04A0  1D03               	skipz
  3460     04A1  2CA4               	goto	u1613
  3461     04A2  084C               	movf	___fladd@a,w
  3462     04A3  0248               	subwf	___fladd@b,w
  3463     04A4                     u1613:
  3464     04A4  1803               	skipnc
  3465     04A5  2CA7               	goto	u1611
  3466     04A6  2CA8               	goto	u1610
  3467     04A7                     u1611:
  3468     04A7  2D00               	goto	l1476
  3469     04A8                     u1610:
  3470     04A8                     l1468:
  3471     04A8  30FF               	movlw	255
  3472     04A9  00D0               	movwf	??___fladd
  3473     04AA  30FF               	movlw	255
  3474     04AB  00D1               	movwf	??___fladd+1
  3475     04AC  30FF               	movlw	255
  3476     04AD  00D2               	movwf	??___fladd+2
  3477     04AE  30FF               	movlw	255
  3478     04AF  00D3               	movwf	??___fladd+3
  3479     04B0  084C               	movf	___fladd@a,w
  3480     04B1  00D4               	movwf	??___fladd+4
  3481     04B2  084D               	movf	___fladd@a+1,w
  3482     04B3  00D5               	movwf	??___fladd+5
  3483     04B4  084E               	movf	___fladd@a+2,w
  3484     04B5  00D6               	movwf	??___fladd+6
  3485     04B6  084F               	movf	___fladd@a+3,w
  3486     04B7  00D7               	movwf	??___fladd+7
  3487     04B8  0848               	movf	___fladd@b,w
  3488     04B9  02D4               	subwf	??___fladd+4,f
  3489     04BA  0849               	movf	___fladd@b+1,w
  3490     04BB  1C03               	skipc
  3491     04BC  0F49               	incfsz	___fladd@b+1,w
  3492     04BD  2CBF               	goto	u1621
  3493     04BE  2CC0               	goto	u1622
  3494     04BF                     u1621:
  3495     04BF  02D5               	subwf	??___fladd+5,f
  3496     04C0                     u1622:
  3497     04C0  084A               	movf	___fladd@b+2,w
  3498     04C1  1C03               	skipc
  3499     04C2  0F4A               	incfsz	___fladd@b+2,w
  3500     04C3  2CC5               	goto	u1623
  3501     04C4  2CC6               	goto	u1624
  3502     04C5                     u1623:
  3503     04C5  02D6               	subwf	??___fladd+6,f
  3504     04C6                     u1624:
  3505     04C6  084B               	movf	___fladd@b+3,w
  3506     04C7  1C03               	skipc
  3507     04C8  0F4B               	incfsz	___fladd@b+3,w
  3508     04C9  2CCB               	goto	u1625
  3509     04CA  2CCC               	goto	u1626
  3510     04CB                     u1625:
  3511     04CB  02D7               	subwf	??___fladd+7,f
  3512     04CC                     u1626:
  3513     04CC  0854               	movf	??___fladd+4,w
  3514     04CD  07D0               	addwf	??___fladd,f
  3515     04CE  0855               	movf	??___fladd+5,w
  3516     04CF  1803               	skipnc
  3517     04D0  0F55               	incfsz	??___fladd+5,w
  3518     04D1  2CD3               	goto	u1630
  3519     04D2  2CD4               	goto	u1631
  3520     04D3                     u1630:
  3521     04D3  07D1               	addwf	??___fladd+1,f
  3522     04D4                     u1631:
  3523     04D4  0856               	movf	??___fladd+6,w
  3524     04D5  1803               	skipnc
  3525     04D6  0F56               	incfsz	??___fladd+6,w
  3526     04D7  2CD9               	goto	u1632
  3527     04D8  2CDA               	goto	u1633
  3528     04D9                     u1632:
  3529     04D9  07D2               	addwf	??___fladd+2,f
  3530     04DA                     u1633:
  3531     04DA  0857               	movf	??___fladd+7,w
  3532     04DB  1803               	skipnc
  3533     04DC  0A57               	incf	??___fladd+7,w
  3534     04DD  07D3               	addwf	??___fladd+3,f
  3535     04DE  0853               	movf	??___fladd+3,w
  3536     04DF  00CB               	movwf	___fladd@b+3
  3537     04E0  0852               	movf	??___fladd+2,w
  3538     04E1  00CA               	movwf	___fladd@b+2
  3539     04E2  0851               	movf	??___fladd+1,w
  3540     04E3  00C9               	movwf	___fladd@b+1
  3541     04E4  0850               	movf	??___fladd,w
  3542     04E5  00C8               	movwf	___fladd@b
  3543     04E6                     l1470:
  3544     04E6  3080               	movlw	128
  3545     04E7  00D0               	movwf	??___fladd
  3546     04E8  0850               	movf	??___fladd,w
  3547     04E9  06D8               	xorwf	___fladd@signs,f
  3548     04EA  09DB               	comf	___fladd@grs,f
  3549     04EB  0ADB               	incf	___fladd@grs,f
  3550     04EC                     l1472:
  3551     04EC  085B               	movf	___fladd@grs,w
  3552     04ED  1D03               	btfss	3,2
  3553     04EE  2CF0               	goto	u1641
  3554     04EF  2CF1               	goto	u1640
  3555     04F0                     u1641:
  3556     04F0  2D0E               	goto	l546
  3557     04F1                     u1640:
  3558     04F1                     l1474:
  3559     04F1  3001               	movlw	1
  3560     04F2  07C8               	addwf	___fladd@b,f
  3561     04F3  3000               	movlw	0
  3562     04F4  1803               	skipnc
  3563     04F5  3001               	movlw	1
  3564     04F6  07C9               	addwf	___fladd@b+1,f
  3565     04F7  3000               	movlw	0
  3566     04F8  1803               	skipnc
  3567     04F9  3001               	movlw	1
  3568     04FA  07CA               	addwf	___fladd@b+2,f
  3569     04FB  3000               	movlw	0
  3570     04FC  1803               	skipnc
  3571     04FD  3001               	movlw	1
  3572     04FE  07CB               	addwf	___fladd@b+3,f
  3573     04FF  2D0E               	goto	l546
  3574     0500                     l1476:
  3575     0500  084C               	movf	___fladd@a,w
  3576     0501  02C8               	subwf	___fladd@b,f
  3577     0502  084D               	movf	___fladd@a+1,w
  3578     0503  1C03               	skipc
  3579     0504  0F4D               	incfsz	___fladd@a+1,w
  3580     0505  02C9               	subwf	___fladd@b+1,f
  3581     0506  084E               	movf	___fladd@a+2,w
  3582     0507  1C03               	skipc
  3583     0508  0F4E               	incfsz	___fladd@a+2,w
  3584     0509  02CA               	subwf	___fladd@b+2,f
  3585     050A  084F               	movf	___fladd@a+3,w
  3586     050B  1C03               	skipc
  3587     050C  0F4F               	incfsz	___fladd@a+3,w
  3588     050D  02CB               	subwf	___fladd@b+3,f
  3589     050E                     l546:
  3590     050E  084B               	movf	___fladd@b+3,w
  3591     050F  044A               	iorwf	___fladd@b+2,w
  3592     0510  0449               	iorwf	___fladd@b+1,w
  3593     0511  0448               	iorwf	___fladd@b,w
  3594     0512  1D03               	skipz
  3595     0513  2D15               	goto	u1651
  3596     0514  2D16               	goto	u1650
  3597     0515                     u1651:
  3598     0515  2D42               	goto	l1498
  3599     0516                     u1650:
  3600     0516                     l1478:
  3601     0516  085B               	movf	___fladd@grs,w
  3602     0517  1D03               	btfss	3,2
  3603     0518  2D1A               	goto	u1661
  3604     0519  2D1B               	goto	u1660
  3605     051A                     u1661:
  3606     051A  2D42               	goto	l1498
  3607     051B                     u1660:
  3608     051B                     l1480:
  3609     051B  3000               	movlw	0
  3610     051C  00CB               	movwf	?___fladd+3
  3611     051D  3000               	movlw	0
  3612     051E  00CA               	movwf	?___fladd+2
  3613     051F  3000               	movlw	0
  3614     0520  00C9               	movwf	?___fladd+1
  3615     0521  3000               	movlw	0
  3616     0522  00C8               	movwf	?___fladd
  3617     0523  2DBE               	goto	l538
  3618     0524                     l1484:
  3619     0524  3001               	movlw	1
  3620     0525  00D0               	movwf	??___fladd
  3621     0526                     u1675:
  3622     0526  1003               	clrc
  3623     0527  0DC8               	rlf	___fladd@b,f
  3624     0528  0DC9               	rlf	___fladd@b+1,f
  3625     0529  0DCA               	rlf	___fladd@b+2,f
  3626     052A  0DCB               	rlf	___fladd@b+3,f
  3627     052B  0BD0               	decfsz	??___fladd,f
  3628     052C  2D26               	goto	u1675
  3629     052D                     l1486:
  3630     052D  1FDB               	btfss	___fladd@grs,7
  3631     052E  2D30               	goto	u1681
  3632     052F  2D31               	goto	u1680
  3633     0530                     u1681:
  3634     0530  2D32               	goto	l550
  3635     0531                     u1680:
  3636     0531                     l1488:
  3637     0531  1448               	bsf	___fladd@b,0
  3638     0532                     l550:
  3639     0532  1C5B               	btfss	___fladd@grs,0
  3640     0533  2D35               	goto	u1691
  3641     0534  2D36               	goto	u1690
  3642     0535                     u1691:
  3643     0535  2D39               	goto	l1492
  3644     0536                     u1690:
  3645     0536                     l1490:
  3646     0536  1403               	setc
  3647     0537  0DDB               	rlf	___fladd@grs,f
  3648     0538  2D3B               	goto	l1494
  3649     0539                     l1492:
  3650     0539  1003               	clrc
  3651     053A  0DDB               	rlf	___fladd@grs,f
  3652     053B                     l1494:
  3653     053B  085A               	movf	___fladd@bexp,w
  3654     053C  1903               	btfsc	3,2
  3655     053D  2D3F               	goto	u1701
  3656     053E  2D40               	goto	u1700
  3657     053F                     u1701:
  3658     053F  2D42               	goto	l1498
  3659     0540                     u1700:
  3660     0540                     l1496:
  3661     0540  3001               	movlw	1
  3662     0541  02DA               	subwf	___fladd@bexp,f
  3663     0542                     l1498:
  3664     0542  1FCA               	btfss	___fladd@b+2,7
  3665     0543  2D45               	goto	u1711
  3666     0544  2D46               	goto	u1710
  3667     0545                     u1711:
  3668     0545  2D24               	goto	l1484
  3669     0546                     u1710:
  3670     0546                     l1500:
  3671     0546  01D9               	clrf	___fladd@aexp
  3672     0547                     l1502:
  3673     0547  1FDB               	btfss	___fladd@grs,7
  3674     0548  2D4A               	goto	u1721
  3675     0549  2D4B               	goto	u1720
  3676     054A                     u1721:
  3677     054A  2D59               	goto	l1510
  3678     054B                     u1720:
  3679     054B                     l1504:
  3680     054B  085B               	movf	___fladd@grs,w
  3681     054C  397F               	andlw	127
  3682     054D  1903               	btfsc	3,2
  3683     054E  2D50               	goto	u1731
  3684     054F  2D51               	goto	u1730
  3685     0550                     u1731:
  3686     0550  2D54               	goto	l556
  3687     0551                     u1730:
  3688     0551                     l1506:
  3689     0551  01D9               	clrf	___fladd@aexp
  3690     0552  0AD9               	incf	___fladd@aexp,f
  3691     0553  2D59               	goto	l1510
  3692     0554                     l556:
  3693     0554  1C48               	btfss	___fladd@b,0
  3694     0555  2D57               	goto	u1741
  3695     0556  2D58               	goto	u1740
  3696     0557                     u1741:
  3697     0557  2D59               	goto	l1510
  3698     0558                     u1740:
  3699     0558  2D51               	goto	l1506
  3700     0559                     l1510:
  3701     0559  0859               	movf	___fladd@aexp,w
  3702     055A  1903               	btfsc	3,2
  3703     055B  2D5D               	goto	u1751
  3704     055C  2D5E               	goto	u1750
  3705     055D                     u1751:
  3706     055D  2D92               	goto	l559
  3707     055E                     u1750:
  3708     055E                     l1512:
  3709     055E  3001               	movlw	1
  3710     055F  07C8               	addwf	___fladd@b,f
  3711     0560  3000               	movlw	0
  3712     0561  1803               	skipnc
  3713     0562  3001               	movlw	1
  3714     0563  07C9               	addwf	___fladd@b+1,f
  3715     0564  3000               	movlw	0
  3716     0565  1803               	skipnc
  3717     0566  3001               	movlw	1
  3718     0567  07CA               	addwf	___fladd@b+2,f
  3719     0568  3000               	movlw	0
  3720     0569  1803               	skipnc
  3721     056A  3001               	movlw	1
  3722     056B  07CB               	addwf	___fladd@b+3,f
  3723     056C                     l1514:
  3724     056C  1C4B               	btfss	___fladd@b+3,0
  3725     056D  2D6F               	goto	u1761
  3726     056E  2D70               	goto	u1760
  3727     056F                     u1761:
  3728     056F  2D92               	goto	l559
  3729     0570                     u1760:
  3730     0570                     l1516:
  3731     0570  0848               	movf	___fladd@b,w
  3732     0571  00D0               	movwf	??___fladd
  3733     0572  0849               	movf	___fladd@b+1,w
  3734     0573  00D1               	movwf	??___fladd+1
  3735     0574  084A               	movf	___fladd@b+2,w
  3736     0575  00D2               	movwf	??___fladd+2
  3737     0576  084B               	movf	___fladd@b+3,w
  3738     0577  00D3               	movwf	??___fladd+3
  3739     0578  3001               	movlw	1
  3740     0579  00D4               	movwf	??___fladd+4
  3741     057A                     u1775:
  3742     057A  0D53               	rlf	??___fladd+3,w
  3743     057B  0CD3               	rrf	??___fladd+3,f
  3744     057C  0CD2               	rrf	??___fladd+2,f
  3745     057D  0CD1               	rrf	??___fladd+1,f
  3746     057E  0CD0               	rrf	??___fladd,f
  3747     057F                     u1770:
  3748     057F  0BD4               	decfsz	??___fladd+4,f
  3749     0580  2D7A               	goto	u1775
  3750     0581  0853               	movf	??___fladd+3,w
  3751     0582  00CB               	movwf	___fladd@b+3
  3752     0583  0852               	movf	??___fladd+2,w
  3753     0584  00CA               	movwf	___fladd@b+2
  3754     0585  0851               	movf	??___fladd+1,w
  3755     0586  00C9               	movwf	___fladd@b+1
  3756     0587  0850               	movf	??___fladd,w
  3757     0588  00C8               	movwf	___fladd@b
  3758     0589  0A5A               	incf	___fladd@bexp,w
  3759     058A  1903               	btfsc	3,2
  3760     058B  2D8D               	goto	u1781
  3761     058C  2D8E               	goto	u1780
  3762     058D                     u1781:
  3763     058D  2D92               	goto	l559
  3764     058E                     u1780:
  3765     058E                     l1518:
  3766     058E  3001               	movlw	1
  3767     058F  00D0               	movwf	??___fladd
  3768     0590  0850               	movf	??___fladd,w
  3769     0591  07DA               	addwf	___fladd@bexp,f
  3770     0592                     l559:
  3771     0592  0A5A               	incf	___fladd@bexp,w
  3772     0593  1903               	btfsc	3,2
  3773     0594  2D96               	goto	u1791
  3774     0595  2D97               	goto	u1790
  3775     0596                     u1791:
  3776     0596  2D9C               	goto	l1522
  3777     0597                     u1790:
  3778     0597                     l1520:
  3779     0597  085A               	movf	___fladd@bexp,w
  3780     0598  1D03               	btfss	3,2
  3781     0599  2D9B               	goto	u1801
  3782     059A  2D9C               	goto	u1800
  3783     059B                     u1801:
  3784     059B  2DAA               	goto	l1528
  3785     059C                     u1800:
  3786     059C                     l1522:
  3787     059C  3000               	movlw	0
  3788     059D  00CB               	movwf	___fladd@b+3
  3789     059E  3000               	movlw	0
  3790     059F  00CA               	movwf	___fladd@b+2
  3791     05A0  3000               	movlw	0
  3792     05A1  00C9               	movwf	___fladd@b+1
  3793     05A2  3000               	movlw	0
  3794     05A3  00C8               	movwf	___fladd@b
  3795     05A4                     l1524:
  3796     05A4  085A               	movf	___fladd@bexp,w
  3797     05A5  1D03               	btfss	3,2
  3798     05A6  2DA8               	goto	u1811
  3799     05A7  2DA9               	goto	u1810
  3800     05A8                     u1811:
  3801     05A8  2DAA               	goto	l1528
  3802     05A9                     u1810:
  3803     05A9                     l1526:
  3804     05A9  01D8               	clrf	___fladd@signs
  3805     05AA                     l1528:
  3806     05AA  1C5A               	btfss	___fladd@bexp,0
  3807     05AB  2DAD               	goto	u1821
  3808     05AC  2DAE               	goto	u1820
  3809     05AD                     u1821:
  3810     05AD  2DB0               	goto	l1532
  3811     05AE                     u1820:
  3812     05AE                     l1530:
  3813     05AE  17CA               	bsf	___fladd@b+2,7
  3814     05AF  2DB4               	goto	l567
  3815     05B0                     l1532:
  3816     05B0  307F               	movlw	127
  3817     05B1  00D0               	movwf	??___fladd
  3818     05B2  0850               	movf	??___fladd,w
  3819     05B3  05CA               	andwf	___fladd@b+2,f
  3820     05B4                     l567:
  3821     05B4  085A               	movf	___fladd@bexp,w
  3822     05B5  00D0               	movwf	??___fladd
  3823     05B6  1003               	clrc
  3824     05B7  0C50               	rrf	??___fladd,w
  3825     05B8  00CB               	movwf	___fladd@b+3
  3826     05B9                     l1534:
  3827     05B9  1FD8               	btfss	___fladd@signs,7
  3828     05BA  2DBC               	goto	u1831
  3829     05BB  2DBD               	goto	u1830
  3830     05BC                     u1831:
  3831     05BC  2DBE               	goto	l568
  3832     05BD                     u1830:
  3833     05BD                     l1536:
  3834     05BD  17CB               	bsf	___fladd@b+3,7
  3835     05BE                     l568:
  3836     05BE                     l538:
  3837     05BE  0008               	return
  3838     05BF                     __end_of___fladd:
  3839                           
  3840                           	psect	text10
  3841     0F72                     __ptext10:	
  3842 ;; *************** function _isr *****************
  3843 ;; Defined at:
  3844 ;;		line 59 in file "MAIN.c"
  3845 ;; Parameters:    Size  Location     Type
  3846 ;;		None
  3847 ;; Auto vars:     Size  Location     Type
  3848 ;;		None
  3849 ;; Return value:  Size  Location     Type
  3850 ;;                  1    wreg      void 
  3851 ;; Registers used:
  3852 ;;		wreg, status,2, status,0
  3853 ;; Tracked objects:
  3854 ;;		On entry : 0/0
  3855 ;;		On exit  : 0/0
  3856 ;;		Unchanged: 0/0
  3857 ;; Data sizes:     COMMON   BANK0   BANK1   BANK3   BANK2
  3858 ;;      Params:         0       0       0       0       0
  3859 ;;      Locals:         0       0       0       0       0
  3860 ;;      Temps:          4       0       0       0       0
  3861 ;;      Totals:         4       0       0       0       0
  3862 ;;Total ram usage:        4 bytes
  3863 ;; Hardware stack levels used: 1
  3864 ;; This function calls:
  3865 ;;		Nothing
  3866 ;; This function is called by:
  3867 ;;		Interrupt level 1
  3868 ;; This function uses a non-reentrant model
  3869 ;;
  3870                           
  3871     0F72                     _isr:	
  3872                           ;psect for function _isr
  3873                           
  3874     0F72                     i1l1786:
  3875                           
  3876                           ;MAIN.c: 61:     if (INTCONbits.T0IF){
  3877     0F72  1D0B               	btfss	11,2	;volatile
  3878     0F73  2F75               	goto	u236_21
  3879     0F74  2F76               	goto	u236_20
  3880     0F75                     u236_21:
  3881     0F75  2F9E               	goto	i1l94
  3882     0F76                     u236_20:
  3883     0F76                     i1l1788:
  3884                           
  3885                           ;MAIN.c: 62:         cont++;
  3886     0F76  3001               	movlw	1
  3887     0F77  00F0               	movwf	??_isr
  3888     0F78  0870               	movf	??_isr,w
  3889     0F79  1283               	bcf	3,5	;RP0=0, select bank0
  3890     0F7A  1303               	bcf	3,6	;RP1=0, select bank0
  3891     0F7B  07EE               	addwf	_cont,f
  3892     0F7C                     i1l1790:
  3893                           
  3894                           ;MAIN.c: 63:         if (cont <= VAL3){
  3895     0F7C  0867               	movf	_VAL3+1,w
  3896     0F7D  3A80               	xorlw	128
  3897     0F7E  00F0               	movwf	??_isr
  3898     0F7F  3080               	movlw	128
  3899     0F80  0270               	subwf	??_isr,w
  3900     0F81  1D03               	skipz
  3901     0F82  2F85               	goto	u237_25
  3902     0F83  086E               	movf	_cont,w
  3903     0F84  0266               	subwf	_VAL3,w
  3904     0F85                     u237_25:
  3905     0F85  1C03               	skipc
  3906     0F86  2F88               	goto	u237_21
  3907     0F87  2F89               	goto	u237_20
  3908     0F88                     u237_21:
  3909     0F88  2F96               	goto	i1l92
  3910     0F89                     u237_20:
  3911     0F89                     i1l1792:
  3912                           
  3913                           ;MAIN.c: 64:             PORTCbits.RC3 = 1;
  3914     0F89  1283               	bcf	3,5	;RP0=0, select bank0
  3915     0F8A  1303               	bcf	3,6	;RP1=0, select bank0
  3916     0F8B  1587               	bsf	7,3	;volatile
  3917     0F8C                     i1l1794:
  3918                           
  3919                           ;MAIN.c: 65:             _delay((unsigned long)((20)*(500000/4000.0)));
  3920     0F8C  3004               	movlw	4
  3921     0F8D  00F1               	movwf	??_isr+1
  3922     0F8E  303D               	movlw	61
  3923     0F8F  00F0               	movwf	??_isr
  3924     0F90                     u331_27:
  3925     0F90  0BF0               	decfsz	??_isr,f
  3926     0F91  2F90               	goto	u331_27
  3927     0F92  0BF1               	decfsz	??_isr+1,f
  3928     0F93  2F90               	goto	u331_27
  3929     0F94  2F95               	nop2
  3930                           
  3931                           ;MAIN.c: 66:         }
  3932     0F95  2F99               	goto	i1l1796
  3933     0F96                     i1l92:	
  3934                           ;MAIN.c: 68:         else{
  3935                           
  3936                           
  3937                           ;MAIN.c: 69:             PORTCbits.RC3 = 0;
  3938     0F96  1283               	bcf	3,5	;RP0=0, select bank0
  3939     0F97  1303               	bcf	3,6	;RP1=0, select bank0
  3940     0F98  1187               	bcf	7,3	;volatile
  3941     0F99                     i1l1796:
  3942                           
  3943                           ;MAIN.c: 72:         TMR0 = 240;
  3944     0F99  30F0               	movlw	240
  3945     0F9A  1283               	bcf	3,5	;RP0=0, select bank0
  3946     0F9B  1303               	bcf	3,6	;RP1=0, select bank0
  3947     0F9C  0081               	movwf	1	;volatile
  3948     0F9D                     i1l1798:
  3949                           
  3950                           ;MAIN.c: 73:         INTCONbits.T0IF = 0;
  3951     0F9D  110B               	bcf	11,2	;volatile
  3952     0F9E                     i1l94:
  3953     0F9E  0873               	movf	??_isr+3,w
  3954     0F9F  008A               	movwf	10
  3955     0FA0  0E72               	swapf	??_isr+2,w
  3956     0FA1  0083               	movwf	3
  3957     0FA2  0EFE               	swapf	btemp,f
  3958     0FA3  0E7E               	swapf	btemp,w
  3959     0FA4  0009               	retfie
  3960     0FA5                     __end_of_isr:
  3961     007E                     btemp	set	126	;btemp
  3962     007E                     wtemp0	set	126
  3963                           
  3964                           	psect	intentry
  3965     0004                     __pintentry:	
  3966                           ;incstack = 0
  3967                           ; Regs used in _isr: [wreg+status,2+status,0]
  3968                           
  3969     0004                     interrupt_function:
  3970     007E                     saved_w	set	btemp
  3971     0004  00FE               	movwf	btemp
  3972     0005  0E03               	swapf	3,w
  3973     0006  00F2               	movwf	??_isr+2
  3974     0007  080A               	movf	10,w
  3975     0008  00F3               	movwf	??_isr+3
  3976     0009  120A  158A  2F72   	ljmp	_isr
  3977                           
  3978                           	psect	idloc
  3979                           
  3980                           ;Config register IDLOC0 @ 0x2000
  3981                           ;	unspecified, using default values
  3982     2000                     	org	8192
  3983     2000  3FFF               	dw	16383
  3984                           
  3985                           ;Config register IDLOC1 @ 0x2001
  3986                           ;	unspecified, using default values
  3987     2001                     	org	8193
  3988     2001  3FFF               	dw	16383
  3989                           
  3990                           ;Config register IDLOC2 @ 0x2002
  3991                           ;	unspecified, using default values
  3992     2002                     	org	8194
  3993     2002  3FFF               	dw	16383
  3994                           
  3995                           ;Config register IDLOC3 @ 0x2003
  3996                           ;	unspecified, using default values
  3997     2003                     	org	8195
  3998     2003  3FFF               	dw	16383
  3999                           
  4000                           	psect	config
  4001                           
  4002                           ;Config register CONFIG1 @ 0x2007
  4003                           ;	Oscillator Selection bits
  4004                           ;	FOSC = INTRC_NOCLKOUT, INTOSCIO oscillator: I/O function on RA6/OSC2/CLKOUT pin, I/O f
      +                          unction on RA7/OSC1/CLKIN
  4005                           ;	Watchdog Timer Enable bit
  4006                           ;	WDTE = OFF, WDT disabled and can be enabled by SWDTEN bit of the WDTCON register
  4007                           ;	Power-up Timer Enable bit
  4008                           ;	PWRTE = ON, PWRT enabled
  4009                           ;	RE3/MCLR pin function select bit
  4010                           ;	MCLRE = OFF, RE3/MCLR pin function is digital input, MCLR internally tied to VDD
  4011                           ;	Code Protection bit
  4012                           ;	CP = OFF, Program memory code protection is disabled
  4013                           ;	Data Code Protection bit
  4014                           ;	CPD = OFF, Data memory code protection is disabled
  4015                           ;	Brown Out Reset Selection bits
  4016                           ;	BOREN = OFF, BOR disabled
  4017                           ;	Internal External Switchover bit
  4018                           ;	IESO = OFF, Internal/External Switchover mode is disabled
  4019                           ;	Fail-Safe Clock Monitor Enabled bit
  4020                           ;	FCMEN = OFF, Fail-Safe Clock Monitor is disabled
  4021                           ;	Low Voltage Programming Enable bit
  4022                           ;	LVP = OFF, RB3 pin has digital I/O, HV on MCLR must be used for programming
  4023                           ;	In-Circuit Debugger Mode bit
  4024                           ;	DEBUG = 0x1, unprogrammed default
  4025     2007                     	org	8199
  4026     2007  20C4               	dw	8388
  4027                           
  4028                           ;Config register CONFIG2 @ 0x2008
  4029                           ;	Brown-out Reset Selection bit
  4030                           ;	BOR4V = BOR40V, Brown-out Reset set to 4.0V
  4031                           ;	Flash Program Memory Self Write Enable bits
  4032                           ;	WRT = OFF, Write protection off
  4033     2008                     	org	8200
  4034     2008  3FFF               	dw	16383

Data Sizes:
    Strings     0
    Constant    0
    Data        0
    BSS         13
    Persistent  0
    Stack       0

Auto Spaces:
    Space          Size  Autos    Used
    COMMON           14      6      10
    BANK0            80     70      79
    BANK1            80      4       4
    BANK3            96      0       0
    BANK2            96      0       0

Pointer List with Targets:

    None.

Critical Paths under _main in COMMON

    ___flmul->__Umul8_16

Critical Paths under _isr in COMMON

    None.

Critical Paths under _main in BANK0

    _paso->___fltol
    ___fltol->___fladd
    ___flmul->___xxtofl
    ___fladd->___flmul

Critical Paths under _isr in BANK0

    None.

Critical Paths under _main in BANK1

    _main->_paso

Critical Paths under _isr in BANK1

    None.

Critical Paths under _main in BANK3

    None.

Critical Paths under _isr in BANK3

    None.

Critical Paths under _main in BANK2

    None.

Critical Paths under _isr in BANK2

    None.

Call Graph Tables:

 ---------------------------------------------------------------------------------
 (Depth) Function   	        Calls       Base Space   Used Autos Params    Refs
 ---------------------------------------------------------------------------------
 (0) _main                                                 2     2      0    6819
                                              2 BANK1      2     2      0
                               _paso
                              _setup
                           _setupADC
                           _setupPWM
 ---------------------------------------------------------------------------------
 (1) _setupPWM                                             0     0      0       0
 ---------------------------------------------------------------------------------
 (1) _setupADC                                             1     1      0       0
                                              4 COMMON     1     1      0
 ---------------------------------------------------------------------------------
 (1) _setup                                                0     0      0       0
 ---------------------------------------------------------------------------------
 (1) _paso                                                 2     0      2    6819
                                              0 BANK1      2     0      2
                            ___fladd
                            ___flmul
                            ___fltol
                           ___xxtofl
 ---------------------------------------------------------------------------------
 (2) ___xxtofl                                            14    10      4     566
                                              0 BANK0     14    10      4
 ---------------------------------------------------------------------------------
 (2) ___fltol                                             10     6      4     427
                                             60 BANK0     10     6      4
                            ___fladd (ARG)
                            ___flmul (ARG)
                           ___xxtofl (ARG)
 ---------------------------------------------------------------------------------
 (2) ___flmul                                             26    18      8    3353
                                             14 BANK0     26    18      8
                          __Umul8_16
                           ___xxtofl (ARG)
 ---------------------------------------------------------------------------------
 (3) __Umul8_16                                            9     7      2     980
                                              4 COMMON     2     0      2
                                              0 BANK0      7     7      0
 ---------------------------------------------------------------------------------
 (2) ___fladd                                             20    12      8    2262
                                             40 BANK0     20    12      8
                            ___flmul (ARG)
                           ___xxtofl (ARG)
 ---------------------------------------------------------------------------------
 Estimated maximum stack depth 3
 ---------------------------------------------------------------------------------
 (Depth) Function   	        Calls       Base Space   Used Autos Params    Refs
 ---------------------------------------------------------------------------------
 (4) _isr                                                  4     4      0       0
                                              0 COMMON     4     4      0
 ---------------------------------------------------------------------------------
 Estimated maximum stack depth 4
 ---------------------------------------------------------------------------------

 Call Graph Graphs:

 _main (ROOT)
   _paso
     ___fladd
       ___flmul (ARG)
         __Umul8_16
         ___xxtofl (ARG)
       ___xxtofl (ARG)
     ___flmul
     ___fltol
       ___fladd (ARG)
       ___flmul (ARG)
       ___xxtofl (ARG)
     ___xxtofl
   _setup
   _setupADC
   _setupPWM

 _isr (ROOT)

 Address spaces:
Name               Size   Autos  Total    Cost      Usage
BITCOMMON            E      0       0       0        0.0%
EEDATA             100      0       0       0        0.0%
NULL                 0      0       0       0        0.0%
CODE                 0      0       0       0        0.0%
COMMON               E      6       A       1       71.4%
BITSFR0              0      0       0       1        0.0%
SFR0                 0      0       0       1        0.0%
BITSFR1              0      0       0       2        0.0%
SFR1                 0      0       0       2        0.0%
STACK                0      0       0       2        0.0%
ABS                  0      0      5D       3        0.0%
BITBANK0            50      0       0       4        0.0%
BITSFR3              0      0       0       4        0.0%
SFR3                 0      0       0       4        0.0%
BANK0               50     46      4F       5       98.8%
BITSFR2              0      0       0       5        0.0%
SFR2                 0      0       0       5        0.0%
BITBANK1            50      0       0       6        0.0%
BANK1               50      4       4       7        5.0%
BITBANK3            60      0       0       8        0.0%
BANK3               60      0       0       9        0.0%
BITBANK2            60      0       0      10        0.0%
BANK2               60      0       0      11        0.0%
DATA                 0      0      5D      12        0.0%


Microchip Technology PIC Macro Assembler V2.40 build 20220703182018 
Symbol Table                                                                                   Fri Nov 18 08:45:04 2022

    __Umul8_16@word_mpld 0024                      l100 0670                      l101 05D2  
                    l102 05E3                      l120 0688                      l105 061E  
                    l114 067F                      l115 067B                      l140 0F71  
                    l124 0699                      l108 0656                      l125 0695  
                    l134 0F43                      l143 0F0D                      l119 068C  
                    l137 0FFF                      l145 0F11                      l146 0F15  
                    l425 07C1                      l418 07D6                      l531 041E  
                    l428 07D6                      l525 03C2                      l621 0366  
                    l550 0532                      l640 07ED                      l529 0445  
                    l633 035A                      l546 050E                      l538 05BE  
                    l642 07FF                      l627 02D6                      l556 0554  
                    l567 05B4                      l559 0592                      l671 070C  
                    l568 05BE                      l665 06C9                      l667 075E  
                    l678 0728                      l679 0734                      _LED 0078  
                    _PR2 0092                      _isr 0F72             ___flmul@aexp 003C  
           ___flmul@bexp 0041             ___flmul@sign 003B             ___flmul@temp 0046  
           ___flmul@prod 0042             ___fltol@exp1 0065                     l2000 02BB  
                   l2010 02E0                     l2002 02BF                     l2020 031E  
                   l2012 02EE                     l2004 02D3                     l2100 0605  
                   l2030 0350                     l2022 0329                     l2014 02F2  
                   l2110 0622                     l2102 0609                     l1400 03D8  
                   l2032 0354                     l2024 0338                     l2016 030B  
                   l2008 02DB                     l2040 06A8                     l2120 064D  
                   l2112 0631                     l2104 060F                     l1410 03E2  
                   l1402 03DA                     l2034 0355                     l2026 0342  
                   l2018 0311                     l2042 06AD                     l2130 0683  
                   l2122 0653                     l2114 0640                     l2106 0615  
                   l1500 0546                     l1420 03EC                     l1412 03E4  
                   l1404 03DC                     l2036 035E                     l2028 0344  
                   l2060 06F5                     l2052 06DA                     l2044 06B1  
                   l2132 0690                     l2124 065A                     l2116 0644  
                   l2108 061B                     l1510 0559                     l1502 0547  
                   l1430 0429                     l1414 03E6                     l1406 03DE  
                   l1422 03EE                     l1350 0374                     l2070 072C  
                   l2062 0703                     l2054 06DD                     l2046 06C1  
                   l2134 069D                     l2118 064A                     l2126 0670  
                   l1520 0597                     l1512 055E                     l1504 054B  
                   l1432 042B                     l1440 043D                     l1424 03EF  
                   l1416 03E8                     l1408 03E0                     l1360 0388  
                   l1352 0375                     l1344 0367                     l2080 0756  
                   l2072 0736                     l2064 0713                     l2056 06EA  
                   l2048 06D1                     l2128 0676                     l1530 05AE  
                   l1522 059C                     l1514 056C                     l1506 0551  
                   l1450 046E                     l1442 0449                     l1434 042F  
                   l1426 0406                     l1418 03EA                     l1370 039C  
                   l1354 037A                     l1362 038A                     l1346 036C  
                   l2074 074C                     l2066 071E                     l2058 06F1  
                   l2090 05D6                     l1532 05B0                     l1524 05A4  
                   l1516 0570                     l1460 0483                     l1452 0472  
                   l1444 044E                     l1436 0430                     l1428 0422  
                   l1380 03AF                     l1372 03A0                     l1364 0392  
                   l1356 037F                     l1348 0370                     l2076 0751  
                   l2068 0722                     l2084 0FA5                     l2092 05DA  
                   l1534 05B9                     l1526 05A9                     l1518 058E  
                   l1470 04E6                     l1462 0484                     l1454 0476  
                   l1438 0439                     l1390 03CC                     l1382 03B7  
                   l1374 03A4                     l1366 0395                     l1358 0387  
                   l2078 0755                     l2094 05E0                     l2086 05BF  
                   l1536 05BD                     l1528 05AA                     l1480 051B  
                   l1472 04EC                     l1464 048D                     l1456 047D  
                   l1448 0457                     l1392 03D0                     l1384 03B8  
                   l1376 03A5                     l1368 039B                     l2096 05E7  
                   l2088 05CE                     l1490 0536                     l1474 04F1  
                   l1458 047F                     l1466 0492                     l1394 03D2  
                   l1378 03AA                     l1386 03BA                     l1730 0F21  
                   l1722 0F16                     l2098 05F6                     l1492 0539  
                   l1484 0524                     l1468 04A8                     l1476 0500  
                   l1396 03D4                     l1388 03C8                     l1900 0022  
                   l1740 0F32                     l1732 0F29                     l1724 0F1A  
                   l1494 053B                     l1486 052D                     l1478 0516  
                   l1398 03D6                     l1910 0035                     l1902 0027  
                   l1750 0F3B                     l1742 0F35                     l1734 0F2F  
                   l1726 0F1B                     l1496 0540                     l1488 0531  
                   l1920 0051                     l1912 003A                     l1904 002B  
                   l1752 0F3F                     l1744 0F36                     l1736 0F30  
                   l1728 0F1F                     l1760 0F6C                     l1498 0542  
                   l1850 07DA                     l1930 0064                     l1922 0055  
                   l1914 0042                     l1906 002F                     l1746 0F37  
                   l1738 0F31                     l1754 0F44                     l1770 0EFF  
                   l1762 0EF1                     l1860 07FB                     l1852 07DC  
                   l1940 0080                     l1932 006C                     l1924 0059  
                   l1916 0044                     l1908 0030                     l1748 0F3A  
                   l1756 0F65                     l1780 0F0A                     l1772 0F01  
                   l1764 0EF5                     l1854 07E3                     l1950 00BF  
                   l1934 006E                     l1926 005A                     l1918 004C  
                   l1870 0773                     l1758 0F6B                     l1782 0F0C  
                   l1774 0F05                     l1766 0EF7                     l1856 07E7  
                   l1960 0146                     l1952 00DB                     l1944 0089  
                   l1936 0076                     l1928 005F                     l1880 0795  
                   l1872 0786                     l1864 075F                     l1776 0F06  
                   l1768 0EFB                     l1858 07F6                     l1970 01B3  
                   l1962 0154                     l1954 0105                     l1946 0097  
                   l1938 007B                     l1874 0787                     l1866 076A  
                   l1778 0F09                     l1980 025A                     l1972 01D0  
                   l1964 0171                     l1956 0121                     l1948 00A4  
                   l1876 078F                     l1990 02A6                     l1982 0282  
                   l1974 01FB                     l1966 017F                     l1958 013D  
                   l1894 07B6                     l1886 079D                     l1878 0791  
                   l1992 02A7                     l1984 028B                     l1976 0209  
                   l1968 019C                     l1896 07C6                     l1888 07AF  
                   l1994 02B0                     l1986 0299                     l1978 0234  
                   l1898 07CB                     l1988 02A2                     l1996 02B6  
                   l1998 02BA                     ?_isr 0070                     u1400 037F  
                   u3000 06B1                     u1401 037E                     u3001 06B0  
                   u1410 039B                     u3010 06D1                     u1411 039A  
                   u3011 06D0                     u1500 0422                     u1420 03A4  
                   u3100 0741                     u1501 0421                     u1421 03A3  
                   u1510 042F                     u1430 03AA                     u3110 0751  
                   u3030 06F0                     u1511 042E                     u1431 03A9  
                   u3111 0750                     u3031 06EF                     u1440 03AF  
                   u3120 0755                     u3200 0690                     u1441 03AE  
                   u3121 0754                     u3105 073C                     u3025 06E2  
                   u3201 068F                     u1610 04A8                     u1530 0445  
                   u1450 03C8                     u3050 0712                     u3210 0694  
                   u3130 05E7                     u1611 04A7                     u1531 0444  
                   u1451 03C7                     u3051 0711                     u3211 0693  
                   u3131 05E6                     u1700 0540                     u1540 0449  
                   u1460 03CC                     u1380 0374                     u3220 069D  
                   u3140 0622                     u1701 053F                     u1621 04BF  
                   u1613 04A4                     u1605 0486                     u1541 0448  
                   u1525 0432                     u1461 03CB                     u1381 0373  
                   u3045 0704                     u3221 069C                     u3141 0621  
                   u1710 0546                     u1630 04D3                     u1622 04C0  
                   u1550 044E                     u1470 0406                     u1390 037A  
                   u2510 07FB                     u3070 0722                     u2350 0F11  
                   u3230 06A1                     u3150 065A                     u1711 0545  
                   u1631 04D4                     u1623 04C5                     u1551 044D  
                   u1471 0405                     u1391 0379                     u2511 07FA  
                   u3071 0721                     u2351 0F10                     u3231 06A0  
                   u3151 0659                     u1800 059C                     u1720 054B  
                   u1640 04F1                     u1632 04D9                     u1624 04C6  
                   u1480 0411                     u2600 07C6                     u2520 076A  
                   u3080 0728                     u3160 0676                     u1801 059B  
                   u1721 054A                     u1641 04F0                     u1633 04DA  
                   u1625 04CB                     u1561 0460                     u1481 040F  
                   u2505 07EE                     u2601 07C5                     u2521 0769  
                   u3081 0727                     u3065 0717                     u3161 0675  
                   u1810 05A9                     u1730 0551                     u1650 0516  
                   u1626 04CC                     u1570 0472                     u1562 0467  
                   u1490 0412                     u2610 07CB                     u2530 0781  
                   u3090 072C                     u3170 067A                     u1811 05A8  
                   u1731 0550                     u1651 0515                     u1571 0471  
                   u1563 046E                     u1475 0402                     u2611 07CA  
                   u3091 072B                     u3307 0F6E                     u3171 0679  
                   u1820 05AE                     u1740 0558                     u1660 051B  
                   u1580 0476                     u2620 002F                     u2540 0795  
                   u3180 0683                     u1821 05AD                     u1741 0557  
                   u1661 051A                     u1581 0475                     u2701 00CD  
                   u2621 002E                     u2541 0794                     u3181 0682  
                   u1830 05BD                     u1750 055E                     u1590 0483  
                   u2702 00D4                     u2630 0035                     u2550 079C  
                   u3190 0687                     u1831 05BC                     u1751 055D  
                   u1591 0482                     u2711 00E9                     u2703 00DB  
                   u2631 0034                     u2551 079B                     u2535 077C  
                   u3191 0686                     u3247 05DE                     u1760 0570  
                   u1680 0531                     u2712 00F0                     u2640 003A  
                   u1761 056F                     u1681 0530                     u2801 0218  
                   u2721 0113                     u2713 00F7                     u2641 0039  
                   u3257 060D                     u1770 057F                     u1690 0536  
                   u2490 07E7                     u2810 0240                     u2802 021F  
                   u2722 011A                     u2650 0059                     u2570 07AE  
                   u1691 0535                     u1675 0526                     u2491 07E6  
                   u2803 0226                     u2731 012F                     u2723 0121  
                   u2651 0058                     u2571 07AD                     u3267 0619  
                   u1780 058E                     u2900 02BF                     u2732 0136  
                   u2660 005F                     u2580 07B5                     u1781 058D  
                   u2901 02BE                     u2821 024C                     u2733 013D  
                   u2661 005E                     u2581 07B4                     u2565 079E  
                   u3277 0648                     u1790 0597                     u2910 02D3  
                   u2830 0268                     u2822 0253                     u2670 0064  
                   u1791 0596                     u1775 057A                     u2911 02D2  
                   u2823 025A                     u2815 023B                     u2751 0163  
                   u2671 0063                     u3287 0651                     u2920 02DA  
                   u2752 016A                     u2680 007B                     u2921 02D9  
                   u2841 0274                     u2761 018E                     u2753 0171  
                   u2745 013F                     u2681 007A                     u3297 066D  
                   u2930 02E0                     u2842 027B                     u2762 0195  
                   u2690 0080                     u2931 02DF                     u2843 0282  
                   u2835 0263                     u2763 019C                     u2691 007F  
                   u2595 07B8                     u2940 02F2                     u2941 02F1  
                   u2781 01C2                     u2950 0301                     u2870 02A6  
                   u2782 01C9                     u2871 02A5                     u2855 0284  
                   u2791 01ED                     u2783 01D0                     u2775 019E  
                   u2960 031E                     u2792 01F4                     u2961 031D  
                   u2865 029B                     u2793 01FB                     u2970 0338  
                   u2890 02BA                     u2971 0337                     u2955 02FC  
                   u2891 02B9                     u2980 0354                     u2981 0353  
                   u2965 031A                     u2885 02A9                     u2990 06AD  
                   u2975 0334                     u2991 06AC                     i1l92 0F96  
                   i1l94 0F9E                     _VAL3 0066                     _VAL4 0076  
                   _TMR0 0001                     _cont 006E                     _main 05BF  
                   _paso 0FA5                     btemp 007E                     _volt 006C  
                   start 000C                    ??_isr 0070            ___fltol@sign1 0064  
        __end_of___fladd 05BF                    ?_main 0070                    ?_paso 00A0  
        __end_of___flmul 0367          __end_of___fltol 07D7                    _ANSEL 0188  
                  _PORTA 0005                    _PORTC 0007                    _PORTD 0008  
                  _TRISA 0085                    _TRISB 0086                    _TRISC 0087  
                  _setup 0F16                    pclath 000A                    status 0003  
                  wtemp0 007E          __initialization 000F             __end_of_main 06A5  
           __end_of_paso 1000                   ??_main 00A2                   ??_paso 0076  
                 _ADRESH 001E                   _CCPR1L 0015                   _CCPR2L 001B  
                 ?_setup 0070                   _ANSELH 0189                   i1l1790 0F7C  
                 i1l1792 0F89                   i1l1794 0F8C                   i1l1786 0F72  
                 i1l1796 0F99                   i1l1788 0F76                   i1l1798 0F9D  
                 u331_27 0F90                   u236_20 0F76                   u236_21 0F75  
                 u237_20 0F89                   u237_21 0F88                   u237_25 0F85  
                 _SERVO1 006A                   _SERVO2 0068                   _TMR2IF 0061  
                 _TMR2ON 0092         __end_of___xxtofl 075F                ??___fladd 0050  
              ??___flmul 0036                ??___fltol 0060         __end_of_setupADC 0F72  
       __end_of_setupPWM 0F16                   saved_w 007E             ___xxtofl@arg 002A  
           ___xxtofl@exp 0029             ___xxtofl@val 0020  __end_of__initialization 001E  
            paso@voltaje 00A0               ___fltol@f1 005C           __pcstackCOMMON 0070  
          __end_of_setup 0F44           _OPTION_REGbits 0081                  ??_setup 0074  
             __pbssBANK0 0066        __end_of__Umul8_16 0800               __pmaintext 05BF  
             __pintentry 0004                ?___xxtofl 0020                ?_setupADC 0070  
              ?_setupPWM 0070                  ___fladd 0367                  ___flmul 0022  
                ___fltol 075F                _ANSELbits 0188                  __ptext1 0EF1  
                __ptext2 0F44                  __ptext3 0F16                  __ptext4 0FA5  
                __ptext5 06A5                  __ptext6 075F                  __ptext7 0022  
                __ptext8 07D7                  __ptext9 0367                _T2CONbits 0012  
             ??___xxtofl 0024     end_of_initialization 001E               ??_setupADC 0074  
             ??_setupPWM 0074                _PORTAbits 0005                _PORTBbits 0006  
              _PORTCbits 0007              ___fladd@grs 005B            ___xxtofl@sign 0028  
              _TRISAbits 0085                _TRISCbits 0087              ___flmul@grs 003D  
            _CCP1CONbits 0017              _CCP2CONbits 001D      start_initialization 000F  
            __end_of_isr 0FA5                __Umul8_16 07D7                ___fladd@a 004C  
              ___fladd@b 0048                ___flmul@a 0032                ___flmul@b 002E  
            __pbssCOMMON 0076                ___latbits 0002            __pcstackBANK0 0020  
          __pcstackBANK1 00A0                 ?___fladd 0048                 ?___flmul 002E  
               ?___fltol 005C               ?__Umul8_16 0074        interrupt_function 0004  
               _PIE1bits 008C                 _PIR1bits 000C               _ADCON0bits 001F  
             _ADCON1bits 009F              ??__Umul8_16 0020                 ___xxtofl 06A5  
               __ptext10 0F72                 _setupADC 0F44                 _setupPWM 0EF1  
             _INTCONbits 000B                 intlevel1 0000               _OSCCONbits 008F  
 __Umul8_16@multiplicand 0074            ___fladd@signs 0058             ___fladd@aexp 0059  
           ___fladd@bexp 005A     __Umul8_16@multiplier 0026        __Umul8_16@product 0022  
